
oLog.elf:     file format elf32-avr

Sections:
Idx Name          Size      VMA       LMA       File off  Algn
  0 .data         0000008c  00800100  00002636  000026ca  2**0
                  CONTENTS, ALLOC, LOAD, DATA
  1 .text         00002636  00000000  00000000  00000094  2**1
                  CONTENTS, ALLOC, LOAD, READONLY, CODE
  2 .bss          000004a6  0080018c  0080018c  00002756  2**0
                  ALLOC
  3 .comment      0000005c  00000000  00000000  00002756  2**0
                  CONTENTS, READONLY
  4 .note.gnu.avr.deviceinfo 00000040  00000000  00000000  000027b4  2**2
                  CONTENTS, READONLY
  5 .debug_aranges 00001dd0  00000000  00000000  000027f4  2**0
                  CONTENTS, READONLY, DEBUGGING
  6 .debug_info   0003fb93  00000000  00000000  000045c4  2**0
                  CONTENTS, READONLY, DEBUGGING
  7 .debug_abbrev 00002a54  00000000  00000000  00044157  2**0
                  CONTENTS, READONLY, DEBUGGING
  8 .debug_line   0000b209  00000000  00000000  00046bab  2**0
                  CONTENTS, READONLY, DEBUGGING
  9 .debug_frame  0000b078  00000000  00000000  00051db4  2**2
                  CONTENTS, READONLY, DEBUGGING
 10 .debug_str    0000ed00  00000000  00000000  0005ce2c  2**0
                  CONTENTS, READONLY, DEBUGGING
 11 .debug_loc    00045a00  00000000  00000000  0006bb2c  2**0
                  CONTENTS, READONLY, DEBUGGING
 12 .debug_ranges 00001d90  00000000  00000000  000b152c  2**0
                  CONTENTS, READONLY, DEBUGGING

Disassembly of section .text:

00000000 <__vectors>:
       0:	0c 94 7e 04 	jmp	0x8fc	; 0x8fc <__ctors_end>
       4:	0c 94 9b 04 	jmp	0x936	; 0x936 <__bad_interrupt>
       8:	0c 94 9b 04 	jmp	0x936	; 0x936 <__bad_interrupt>
       c:	0c 94 9b 04 	jmp	0x936	; 0x936 <__bad_interrupt>
      10:	0c 94 9b 04 	jmp	0x936	; 0x936 <__bad_interrupt>
      14:	0c 94 9b 04 	jmp	0x936	; 0x936 <__bad_interrupt>
      18:	0c 94 9b 04 	jmp	0x936	; 0x936 <__bad_interrupt>
      1c:	0c 94 9b 04 	jmp	0x936	; 0x936 <__bad_interrupt>
      20:	0c 94 9b 04 	jmp	0x936	; 0x936 <__bad_interrupt>
      24:	0c 94 9b 04 	jmp	0x936	; 0x936 <__bad_interrupt>
      28:	0c 94 9b 04 	jmp	0x936	; 0x936 <__bad_interrupt>
      2c:	0c 94 9b 04 	jmp	0x936	; 0x936 <__bad_interrupt>
      30:	0c 94 9b 04 	jmp	0x936	; 0x936 <__bad_interrupt>
      34:	0c 94 25 0f 	jmp	0x1e4a	; 0x1e4a <__vector_13>
      38:	0c 94 9b 04 	jmp	0x936	; 0x936 <__bad_interrupt>
      3c:	0c 94 9b 04 	jmp	0x936	; 0x936 <__bad_interrupt>
      40:	0c 94 9b 04 	jmp	0x936	; 0x936 <__bad_interrupt>
      44:	0c 94 9b 04 	jmp	0x936	; 0x936 <__bad_interrupt>
      48:	0c 94 9b 04 	jmp	0x936	; 0x936 <__bad_interrupt>
      4c:	0c 94 9b 04 	jmp	0x936	; 0x936 <__bad_interrupt>
      50:	0c 94 9b 04 	jmp	0x936	; 0x936 <__bad_interrupt>
      54:	0c 94 9b 04 	jmp	0x936	; 0x936 <__bad_interrupt>
      58:	0c 94 9b 04 	jmp	0x936	; 0x936 <__bad_interrupt>
      5c:	0c 94 9b 04 	jmp	0x936	; 0x936 <__bad_interrupt>
      60:	0c 94 9b 04 	jmp	0x936	; 0x936 <__bad_interrupt>
      64:	0c 94 9b 04 	jmp	0x936	; 0x936 <__bad_interrupt>

00000068 <__trampolines_end>:
      68:	bf 00       	.word	0x00bf	; ????
      6a:	03 02       	muls	r16, r19
      6c:	04 04       	cpc	r0, r4
      6e:	02 04       	cpc	r0, r2
      70:	05 0b       	sbc	r16, r21
      72:	0d ff       	.word	0xff0d	; ????
      74:	fe 08       	sbc	r15, r14
      76:	fe 08       	sbc	r15, r14
      78:	fe 01       	movw	r30, r28
      7a:	55 02       	muls	r21, r21
      7c:	bf 08       	sbc	r11, r15
      7e:	76 20       	and	r7, r6
      80:	05 00       	.word	0x0005	; ????
      82:	e6 04       	cpc	r14, r6
      84:	21 06       	cpc	r2, r17
      86:	81 e3       	ldi	r24, 0x31	; 49
      88:	c4 25       	eor	r28, r4
      8a:	22 07       	cpc	r18, r18
      8c:	23 3b       	cpi	r18, 0xB3	; 179
      8e:	45 a2       	std	Z+37, r4	; 0x25
      90:	04 23       	and	r16, r20
      92:	10 76       	andi	r17, 0x60	; 96
      94:	a2 55       	subi	r26, 0x52	; 82
      96:	92 25       	eor	r25, r2
      98:	d1 20       	and	r13, r1
      9a:	25 c9       	rjmp	.-3510   	; 0xfffff2e6 <__eeprom_end+0xff7ef2e6>
      9c:	20 25       	eor	r18, r0
      9e:	59 12       	cpse	r5, r25
      a0:	01 24       	eor	r0, r1
      a2:	10 a5       	ldd	r17, Z+40	; 0x28
      a4:	9e 55       	subi	r25, 0x5E	; 94
      a6:	b6 54       	subi	r27, 0x46	; 70
      a8:	94 6c       	ori	r25, 0xC4	; 196
      aa:	4b a2       	std	Y+35, r4	; 0x23
      ac:	44 a9       	ldd	r20, Z+52	; 0x34
      ae:	6c 11       	cpse	r22, r12
      b0:	00 25       	eor	r16, r0
      b2:	11 88       	ldd	r1, Z+17	; 0x11
      b4:	62 8e       	std	Z+26, r6	; 0x1a
      b6:	d4 92       	xch	Z, r13
      b8:	29 39       	cpi	r18, 0x99	; 153
      ba:	10 e7       	ldi	r17, 0x70	; 112
      bc:	40 a2       	std	Z+32, r4	; 0x20
      be:	25 51       	subi	r18, 0x15	; 21
      c0:	49 01       	movw	r8, r18
      c2:	26 0d       	add	r18, r6
      c4:	86 23       	and	r24, r22
      c6:	8e 16       	cp	r8, r30
      c8:	b5 69       	ori	r27, 0x95	; 149
      ca:	51 a2       	std	Z+33, r5	; 0x21
      cc:	25 91       	lpm	r18, Z+
      ce:	29 27       	eor	r18, r25
      d0:	06 21       	and	r16, r6
      d2:	ba 84       	ldd	r11, Y+10	; 0x0a
      d4:	00 28       	or	r0, r0
      d6:	0b a3       	std	Y+35, r16	; 0x23
      d8:	1a 55       	subi	r17, 0x5A	; 90
      da:	12 25       	eor	r17, r2
      dc:	51 5b       	subi	r21, 0xB1	; 177
      de:	94 05       	cpc	r25, r4
      e0:	29 0c       	add	r2, r9
      e2:	a3 1b       	sub	r26, r19
      e4:	45 16       	cp	r4, r21
      e6:	65 51       	subi	r22, 0x15	; 21
      e8:	4b 94       	des	4
      ea:	44 00       	.word	0x0044	; ????
      ec:	2a 07       	cpc	r18, r26
      ee:	33 36       	cpi	r19, 0x63	; 99
      f0:	45 d2       	rcall	.+1162   	; 0x57c <__LOCK_REGION_LENGTH__+0x17c>
      f2:	01 2b       	or	r16, r17
      f4:	0a 55       	subi	r16, 0x5A	; 90
      f6:	a6 55       	subi	r26, 0x56	; 86
      f8:	18 0d       	add	r17, r8
      fa:	52 18       	sub	r5, r2
      fc:	01 2c       	mov	r0, r1
      fe:	07 32       	cpi	r16, 0x27	; 39
     100:	da 4c       	sbci	r29, 0xCA	; 202
     102:	a2 00       	.word	0x00a2	; ????
     104:	2d 06       	cpc	r2, r29
     106:	13 2e       	mov	r1, r19
     108:	c5 00       	.word	0x00c5	; ????
     10a:	2e 06       	cpc	r2, r30
     10c:	11 e3       	ldi	r17, 0x31	; 49
     10e:	44 00       	.word	0x0044	; ????
     110:	2f 0a       	sbc	r2, r31
     112:	83 e2       	ldi	r24, 0x23	; 35
     114:	54 25       	eor	r21, r4
     116:	6a 89       	ldd	r22, Y+18	; 0x12
     118:	22 00       	.word	0x0022	; ????
     11a:	30 0a       	sbc	r3, r16
     11c:	85 a2       	std	Z+37, r8	; 0x25
     11e:	cd 92       	st	X+, r12
     120:	f9 96       	adiw	r30, 0x39	; 57
     122:	2c 00       	.word	0x002c	; ????
     124:	31 07       	cpc	r19, r17
     126:	82 a3       	std	Z+34, r24	; 0x22
     128:	cd d2       	rcall	.+1434   	; 0x6c4 <__LOCK_REGION_LENGTH__+0x2c4>
     12a:	07 32       	cpi	r16, 0x27	; 39
     12c:	0c 85       	ldd	r16, Y+12	; 0x0c
     12e:	a2 cd       	rjmp	.-1212   	; 0xfffffc74 <__eeprom_end+0xff7efc74>
     130:	92 85       	ldd	r25, Z+10	; 0x0a
     132:	25 29       	or	r18, r5
     134:	0b 07       	cpc	r16, r27
     136:	01 33       	cpi	r16, 0x31	; 49
     138:	0c 85       	ldd	r16, Y+12	; 0x0c
     13a:	a2 cd       	rjmp	.-1212   	; 0xfffffc80 <__eeprom_end+0xff7efc80>
     13c:	92 85       	ldd	r25, Z+10	; 0x0a
     13e:	91 1a       	sub	r9, r17
     140:	6a c9       	rjmp	.-3372   	; 0xfffff416 <__eeprom_end+0xff7ef416>
     142:	02 34       	cpi	r16, 0x42	; 66
     144:	0e 85       	ldd	r16, Y+14	; 0x0e
     146:	a2 5d       	subi	r26, 0xD2	; 210
     148:	26 25       	eor	r18, r6
     14a:	51 52       	subi	r21, 0x21	; 33
     14c:	4a 06       	cpc	r4, r26
     14e:	2d 4c       	sbci	r18, 0xCD	; 205
     150:	00 35       	cpi	r16, 0x50	; 80
     152:	0c 85       	ldd	r16, Y+12	; 0x0c
     154:	a2 cd       	rjmp	.-1212   	; 0xfffffc9a <__eeprom_end+0xff7efc9a>
     156:	90 84       	ldd	r9, Z+8	; 0x08
     158:	e1 1a       	sub	r14, r17
     15a:	6a c9       	rjmp	.-3372   	; 0xfffff430 <__eeprom_end+0xff7ef430>
     15c:	02 36       	cpi	r16, 0x62	; 98
     15e:	0c 85       	ldd	r16, Y+12	; 0x0c
     160:	a2 cd       	rjmp	.-1212   	; 0xfffffca6 <__eeprom_end+0xff7efca6>
     162:	92 89       	ldd	r25, Z+18	; 0x12
     164:	43 92       	.word	0x9243	; ????
     166:	d9 92       	st	Y+, r13
     168:	05 37       	cpi	r16, 0x75	; 117
     16a:	0b 85       	ldd	r16, Y+11	; 0x0b
     16c:	a2 c5       	rjmp	.+2884   	; 0xcb2 <u8g2_add_vector_x+0xc>
     16e:	20 66       	ori	r18, 0x60	; 96
     170:	c5 2c       	mov	r12, r5
     172:	ac 01       	movw	r20, r24
     174:	38 0c       	add	r3, r8
     176:	85 a2       	std	Z+37, r8	; 0x25
     178:	cd 92       	st	X+, r12
     17a:	69 c9       	rjmp	.-3374   	; 0xfffff44e <__eeprom_end+0xff7ef44e>
     17c:	92 d9       	rcall	.-3292   	; 0xfffff4a2 <__eeprom_end+0xff7ef4a2>
     17e:	92 05       	cpc	r25, r2
     180:	39 0c       	add	r3, r9
     182:	85 a2       	std	Z+37, r8	; 0x25
     184:	cd 92       	st	X+, r12
     186:	d9 92       	st	Y+, r13
     188:	21 d4       	rcall	.+2114   	; 0x9cc <OLED_FunScreen+0x92>
     18a:	92 05       	cpc	r25, r2
     18c:	3a 06       	cpc	r3, r26
     18e:	61 e3       	ldi	r22, 0x31	; 49
     190:	44 18       	sub	r4, r4
     192:	3b 09       	sbc	r19, r11
     194:	82 da       	rcall	.-2812   	; 0xfffff69a <__eeprom_end+0xff7ef69a>
     196:	4c 0e       	add	r4, r28
     198:	25 0a       	sbc	r2, r21
     19a:	00 3c       	cpi	r16, 0xC0	; 192
     19c:	07 53       	subi	r16, 0x37	; 55
     19e:	a7 55       	subi	r26, 0x57	; 87
     1a0:	52 2b       	or	r21, r18
     1a2:	3d 08       	sbc	r3, r13
     1a4:	34 6a       	ori	r19, 0xA4	; 164
     1a6:	c5 10       	cpse	r12, r5
     1a8:	0e 01       	movw	r0, r28
     1aa:	3e 08       	sbc	r3, r14
     1ac:	53 a7       	std	Z+43, r21	; 0x2b
     1ae:	45 56       	subi	r20, 0x65	; 101
     1b0:	29 01       	movw	r4, r18
     1b2:	3f 0c       	add	r3, r15
     1b4:	84 a3       	std	Z+36, r24	; 0x24
     1b6:	8d 12       	cpse	r8, r29
     1b8:	65 51       	subi	r22, 0x15	; 21
     1ba:	2d 07       	cpc	r18, r29
     1bc:	22 00       	.word	0x0022	; ????
     1be:	40 16       	cp	r4, r16
     1c0:	9a de       	rcall	.-716    	; 0xfffffef6 <__eeprom_end+0xff7efef6>
     1c2:	de 20       	and	r13, r14
     1c4:	a6 51       	subi	r26, 0x16	; 22
     1c6:	a4 24       	eor	r10, r4
     1c8:	52 49       	sbci	r21, 0x92	; 146
     1ca:	c9 22       	and	r12, r25
     1cc:	25 aa       	std	Z+53, r2	; 0x35
     1ce:	44 8a       	std	Z+20, r4	; 0x14
     1d0:	96 63       	ori	r25, 0x36	; 54
     1d2:	83 06       	cpc	r8, r19
     1d4:	41 0e       	add	r4, r17
     1d6:	87 e2       	ldi	r24, 0x27	; 39
     1d8:	5d 9c       	mul	r5, r13
     1da:	26 61       	ori	r18, 0x16	; 22
     1dc:	92 95       	swap	r25
     1de:	06 25       	eor	r16, r6
     1e0:	55 03       	mulsu	r21, r21
     1e2:	42 0d       	add	r20, r2
     1e4:	85 e3       	ldi	r24, 0x35	; 53
     1e6:	c5 90       	lpm	r12, Z+
     1e8:	64 da       	rcall	.-2872   	; 0xfffff6b2 <__eeprom_end+0xff7ef6b2>
     1ea:	a0 64       	ori	r26, 0x40	; 64
     1ec:	b6 41       	sbci	r27, 0x16	; 22
     1ee:	01 43       	sbci	r16, 0x31	; 49
     1f0:	0c 86       	std	Y+12, r0	; 0x0c
     1f2:	23 ce       	rjmp	.-954    	; 0xfffffe3a <__eeprom_end+0xff7efe3a>
     1f4:	90 84       	ldd	r9, Z+8	; 0x08
     1f6:	6a c7       	rjmp	.+3796   	; 0x10cc <u8g2_font_decode_glyph+0x138>
     1f8:	64 48       	sbci	r22, 0x84	; 132
     1fa:	00 44       	sbci	r16, 0x40	; 64
     1fc:	0d 86       	std	Y+13, r0	; 0x0d
     1fe:	23 c6       	rjmp	.+3142   	; 0xe46 <u8g2_font_decode_get_signed_bits+0x4>
     200:	10 65       	ori	r17, 0x50	; 80
     202:	49 e8       	ldi	r20, 0x89	; 137
     204:	2d 19       	sub	r18, r13
     206:	22 00       	.word	0x0022	; ????
     208:	45 0a       	sbc	r4, r21
     20a:	85 e3       	ldi	r24, 0x35	; 53
     20c:	c5 31       	cpi	r28, 0x15	; 21
     20e:	1c c6       	rjmp	.+3128   	; 0xe48 <u8g2_font_decode_get_signed_bits+0x6>
     210:	e2 20       	and	r14, r2
     212:	46 0a       	sbc	r4, r22
     214:	85 a3       	std	Z+37, r24	; 0x25
     216:	c5 31       	cpi	r28, 0x15	; 21
     218:	1c 92       	st	X, r1
     21a:	b0 11       	cpse	r27, r0
     21c:	47 0c       	add	r4, r7
     21e:	86 23       	and	r24, r22
     220:	ce 90       	ld	r12, -X
     222:	84 6a       	ori	r24, 0xA4	; 164
     224:	6d 14       	cp	r6, r13
     226:	93 41       	sbci	r25, 0x13	; 19
     228:	48 0a       	sbc	r4, r24
     22a:	86 23       	and	r24, r22
     22c:	46 68       	ori	r20, 0x86	; 134
     22e:	1c 06       	cpc	r1, r28
     230:	d1 31       	cpi	r29, 0x11	; 17
     232:	49 06       	cpc	r4, r25
     234:	81 e3       	ldi	r24, 0x31	; 49
     236:	c4 41       	sbci	r28, 0x14	; 20
     238:	4a 09       	sbc	r20, r10
     23a:	84 62       	ori	r24, 0x24	; 36
     23c:	5d 6f       	ori	r21, 0xFD	; 253
     23e:	52 a2       	std	Z+34, r5	; 0x22
     240:	00 4b       	sbci	r16, 0xB0	; 176
     242:	0d 85       	ldd	r16, Y+13	; 0x0d
     244:	e3 45       	sbci	r30, 0x53	; 83
     246:	26 25       	eor	r18, r6
     248:	a5 a9       	ldd	r26, Z+53	; 0x35
     24a:	12 25       	eor	r17, r2
     24c:	99 16       	cp	r9, r25
     24e:	4c 08       	sbc	r4, r12
     250:	84 a3       	std	Z+36, r24	; 0x24
     252:	45 d6       	rcall	.+3210   	; 0xede <u8g2_font_decode_len+0x7e>
     254:	b7 21       	and	r27, r7
     256:	4d 10       	cpse	r4, r13
     258:	87 63       	ori	r24, 0x37	; 55
     25a:	46 ba       	out	0x16, r4	; 22
     25c:	0d d9       	rcall	.-3558   	; 0xfffff478 <__eeprom_end+0xff7ef478>
     25e:	52 51       	subi	r21, 0x12	; 18
     260:	2a 52       	subi	r18, 0x2A	; 42
     262:	24 45       	sbci	r18, 0x54	; 84
     264:	52 01       	movw	r10, r4
     266:	4e 0f       	add	r20, r30
     268:	86 23       	and	r24, r22
     26a:	86 b6       	in	r8, 0x36	; 54
     26c:	29 91       	ld	r18, Y+
     26e:	12 49       	sbci	r17, 0x92	; 146
     270:	89 94       	.word	0x9489	; ????
     272:	68 9b       	sbis	0x0d, 0	; 13
     274:	00 4f       	sbci	r16, 0xF0	; 240
     276:	0b 86       	std	Y+11, r0	; 0x0b
     278:	23 ce       	rjmp	.-954    	; 0xfffffec0 <__eeprom_end+0xff7efec0>
     27a:	90 84       	ldd	r9, Z+8	; 0x08
     27c:	3e 26       	eor	r3, r30
     27e:	43 02       	muls	r20, r19
     280:	50 0c       	add	r5, r0
     282:	85 e3       	ldi	r24, 0x35	; 53
     284:	c5 90       	lpm	r12, Z+
     286:	64 da       	rcall	.-2872   	; 0xfffff750 <__eeprom_end+0xff7ef750>
     288:	a0 84       	ldd	r10, Z+8	; 0x08
     28a:	8d 00       	.word	0x008d	; ????
     28c:	51 12       	cpse	r5, r17
     28e:	97 1f       	adc	r25, r23
     290:	ce 10       	cpse	r12, r14
     292:	85 49       	sbci	r24, 0x95	; 149
     294:	98 84       	ldd	r9, Y+8	; 0x08
     296:	49 98       	cbi	0x09, 1	; 9
     298:	44 49       	sbci	r20, 0x94	; 148
     29a:	4d 1a       	sub	r4, r29
     29c:	74 20       	and	r7, r4
     29e:	52 0c       	add	r5, r2
     2a0:	85 e3       	ldi	r24, 0x35	; 53
     2a2:	c5 90       	lpm	r12, Z+
     2a4:	64 da       	rcall	.-2872   	; 0xfffff76e <__eeprom_end+0xff7ef76e>
     2a6:	a0 64       	ori	r26, 0x40	; 64
     2a8:	6e 01       	movw	r12, r28
     2aa:	53 0c       	add	r5, r3
     2ac:	85 e3       	ldi	r24, 0x35	; 53
     2ae:	cd 92       	st	X+, r12
     2b0:	a9 ab       	std	Y+49, r26	; 0x31
     2b2:	a6 25       	eor	r26, r6
     2b4:	0b 00       	.word	0x000b	; ????
     2b6:	54 09       	sbc	r21, r4
     2b8:	85 62       	ori	r24, 0x25	; 37
     2ba:	c5 20       	and	r12, r5
     2bc:	85 7d       	andi	r24, 0xD5	; 213
     2be:	02 55       	subi	r16, 0x52	; 82
     2c0:	0a 86       	std	Y+10, r0	; 0x0a
     2c2:	23 46       	sbci	r18, 0x63	; 99
     2c4:	e8 c7       	rjmp	.+4048   	; 0x1296 <u8g2_DrawGlyph+0x68>
     2c6:	64 48       	sbci	r22, 0x84	; 132
     2c8:	00 56       	subi	r16, 0x60	; 96
     2ca:	0f 87       	std	Y+15, r16	; 0x0f
     2cc:	e2 45       	sbci	r30, 0x52	; 82
     2ce:	aa 26       	eor	r10, r26
     2d0:	59 94       	.word	0x9459	; ????
     2d2:	45 59       	subi	r20, 0x95	; 149
     2d4:	25 4c       	sbci	r18, 0xC5	; 197
     2d6:	d2 0c       	add	r13, r2
     2d8:	57 10       	cpse	r5, r7
     2da:	89 62       	ori	r24, 0x29	; 41
     2dc:	46 96       	adiw	r24, 0x16	; 22
     2de:	69 95       	.word	0x9569	; ????
     2e0:	a8 2f       	mov	r26, r24
     2e2:	6d c5       	rjmp	.+2778   	; 0xdbe <u8g2_font_decode_get_unsigned_bits+0x3a>
     2e4:	2c cc       	rjmp	.-1960   	; 0xfffffb3e <__eeprom_end+0xff7efb3e>
     2e6:	22 00       	.word	0x0022	; ????
     2e8:	58 0d       	add	r21, r8
     2ea:	85 e3       	ldi	r24, 0x35	; 53
     2ec:	45 a6       	std	Z+45, r4	; 0x2d
     2ee:	25 b5       	in	r18, 0x25	; 37
     2f0:	4a 94       	dec	r4
     2f2:	d4 b4       	in	r13, 0x24	; 36
     2f4:	00 59       	subi	r16, 0x90	; 144
     2f6:	0e 87       	std	Y+14, r16	; 0x0e
     2f8:	e2 45       	sbci	r30, 0x52	; 82
     2fa:	9a 64       	ori	r25, 0x4A	; 74
     2fc:	51 56       	subi	r21, 0x61	; 97
     2fe:	09 93       	st	Y+, r16
     300:	34 ae       	std	Z+60, r3	; 0x3c
     302:	01 5a       	subi	r16, 0xA1	; 161
     304:	0b 85       	ldd	r16, Y+11	; 0x0b
     306:	e3 c5       	rjmp	.+3014   	; 0xece <u8g2_font_decode_len+0x6e>
     308:	20 66       	ori	r18, 0x60	; 96
     30a:	c5 ac       	ldd	r12, Z+61	; 0x3d
     30c:	38 08       	sbc	r3, r8
     30e:	5b 08       	sbc	r5, r11
     310:	a2 db       	rcall	.-2236   	; 0xfffffa56 <__eeprom_end+0xff7efa56>
     312:	c4 d2       	rcall	.+1416   	; 0x89c <__LOCK_REGION_LENGTH__+0x49c>
     314:	2f 02       	muls	r18, r31
     316:	5c 0a       	sbc	r5, r28
     318:	83 e2       	ldi	r24, 0x23	; 35
     31a:	44 94       	.word	0x9444	; ????
     31c:	45 6d       	ori	r20, 0xD5	; 213
     31e:	51 00       	.word	0x0051	; ????
     320:	5d 08       	sbc	r5, r13
     322:	a2 da       	rcall	.-2748   	; 0xfffff868 <__eeprom_end+0xff7ef868>
     324:	84 d2       	rcall	.+1288   	; 0x82e <__LOCK_REGION_LENGTH__+0x42e>
     326:	2f 03       	fmul	r18, r23
     328:	5e 0a       	sbc	r5, r30
     32a:	55 ae       	std	Z+61, r5	; 0x3d
     32c:	55 98       	cbi	0x0a, 5	; 10
     32e:	25 51       	subi	r18, 0x15	; 21
     330:	52 0b       	sbc	r21, r18
     332:	5f 06       	cpc	r5, r31
     334:	16 9a       	sbi	0x02, 6	; 2
     336:	c5 01       	movw	r24, r10
     338:	60 06       	cpc	r6, r16
     33a:	22 fe       	sbrs	r2, 2
     33c:	44 14       	cp	r4, r4
     33e:	61 0c       	add	r6, r1
     340:	65 62       	ori	r22, 0x25	; 37
     342:	c5 1a       	sub	r12, r21
     344:	2d 51       	subi	r18, 0x1D	; 29
     346:	12 45       	sbci	r17, 0x52	; 82
     348:	4a 00       	.word	0x004a	; ????
     34a:	62 0c       	add	r6, r2
     34c:	85 a2       	std	Z+37, r8	; 0x25
     34e:	45 58       	subi	r20, 0x85	; 133
     350:	31 69       	ori	r19, 0x91	; 145
     352:	da a4       	ldd	r13, Y+42	; 0x2a
     354:	28 00       	.word	0x0028	; ????
     356:	63 0a       	sbc	r6, r19
     358:	64 62       	ori	r22, 0x24	; 36
     35a:	8d 12       	cpse	r8, r29
     35c:	69 a5       	ldd	r22, Y+41	; 0x29
     35e:	44 01       	movw	r8, r8
     360:	64 0a       	sbc	r6, r20
     362:	85 a2       	std	Z+37, r8	; 0x25
     364:	65 c5       	rjmp	.+2762   	; 0xe30 <u8g2_font_setup_decode+0x4c>
     366:	b4 99       	sbic	0x16, 4	; 22
     368:	14 25       	eor	r17, r4
     36a:	65 0b       	sbc	r22, r21
     36c:	64 62       	ori	r22, 0x24	; 36
     36e:	8d 12       	cpse	r8, r29
     370:	0d 5b       	subi	r16, 0xBD	; 189
     372:	94 28       	or	r9, r4
     374:	00 66       	ori	r16, 0x60	; 96
     376:	0a 84       	ldd	r0, Y+10	; 0x0a
     378:	22 95       	swap	r18
     37a:	12 4d       	sbci	r17, 0xD2	; 210
     37c:	59 27       	eor	r21, r25
     37e:	00 67       	ori	r16, 0x70	; 112
     380:	0c 85       	ldd	r16, Y+12	; 0x0c
     382:	9a 8d       	ldd	r25, Y+26	; 0x1a
     384:	69 33       	cpi	r22, 0x39	; 57
     386:	29 4a       	sbci	r18, 0xA9	; 169
     388:	98 2c       	mov	r9, r8
     38a:	00 68       	ori	r16, 0x80	; 128
     38c:	0a 85       	ldd	r16, Y+10	; 0x0a
     38e:	a2 45       	sbci	r26, 0x52	; 82
     390:	58 31       	cpi	r21, 0x18	; 24
     392:	69 6e       	ori	r22, 0xE9	; 233
     394:	01 69       	ori	r16, 0x91	; 145
     396:	07 81       	ldd	r16, Z+7	; 0x07
     398:	a2 44       	sbci	r26, 0x42	; 66
     39a:	32 0c       	add	r3, r2
     39c:	6a 09       	sbc	r22, r10
     39e:	a2 99       	sbic	0x14, 2	; 20
     3a0:	4c 96       	adiw	r24, 0x1c	; 28
     3a2:	f4 a2       	std	Z+36, r15	; 0x24
     3a4:	00 6b       	ori	r16, 0xB0	; 176
     3a6:	0c 84       	ldd	r0, Y+12	; 0x0c
     3a8:	62 45       	sbci	r22, 0x52	; 82
     3aa:	56 52       	subi	r21, 0x26	; 38
     3ac:	12 29       	or	r17, r2
     3ae:	29 49       	sbci	r18, 0x99	; 153
     3b0:	01 6c       	ori	r16, 0xC1	; 193
     3b2:	06 81       	ldd	r16, Z+6	; 0x06
     3b4:	a2 c4       	rjmp	.+2372   	; 0xcfa <u8g2_read_font_info+0x34>
     3b6:	41 6d       	ori	r20, 0xD1	; 209
     3b8:	0e 67       	ori	r16, 0x7E	; 126
     3ba:	22 c6       	rjmp	.+3140   	; 0x1000 <u8g2_font_decode_glyph+0x6c>
     3bc:	a2 44       	sbci	r26, 0x42	; 66
     3be:	91 14       	cp	r9, r1
     3c0:	49 91       	ld	r20, Y+
     3c2:	14 49       	sbci	r17, 0x94	; 148
     3c4:	05 6e       	ori	r16, 0xE5	; 229
     3c6:	09 65       	ori	r16, 0x59	; 89
     3c8:	a2 45       	sbci	r26, 0x52	; 82
     3ca:	62 d2       	rcall	.+1220   	; 0x890 <__LOCK_REGION_LENGTH__+0x490>
     3cc:	dc 02       	muls	r29, r28
     3ce:	6f 0a       	sbc	r6, r31
     3d0:	65 a2       	std	Z+37, r6	; 0x25
     3d2:	cd 92       	st	X+, r12
     3d4:	b9 25       	eor	r27, r9
     3d6:	0b 00       	.word	0x000b	; ????
     3d8:	70 0c       	add	r7, r0
     3da:	85 9a       	sbi	0x10, 5	; 16
     3dc:	45 62       	ori	r20, 0x25	; 37
     3de:	d2 b4       	in	r13, 0x22	; 34
     3e0:	49 51       	subi	r20, 0x19	; 25
     3e2:	c2 10       	cpse	r12, r2
     3e4:	71 0a       	sbc	r7, r17
     3e6:	85 9a       	sbi	0x10, 5	; 16
     3e8:	8d 69       	ori	r24, 0x9D	; 157
     3ea:	33 29       	or	r19, r3
     3ec:	4a 58       	subi	r20, 0x8A	; 138
     3ee:	72 09       	sbc	r23, r2
     3f0:	63 22       	and	r6, r19
     3f2:	45 b2       	in	r4, 0x15	; 21
     3f4:	44 4d       	sbci	r20, 0xD4	; 212
     3f6:	00 73       	andi	r16, 0x30	; 48
     3f8:	0b 64       	ori	r16, 0x4B	; 75
     3fa:	62 8d       	ldd	r22, Z+26	; 0x1a
     3fc:	12 25       	eor	r17, r2
     3fe:	a2 94       	swap	r10
     400:	28 00       	.word	0x0028	; ????
     402:	74 0a       	sbc	r7, r20
     404:	83 22       	and	r8, r19
     406:	4d 94 2c 51 	jmp	0x12a258	; 0x12a258 <__TEXT_REGION_LENGTH__+0x10a258>
     40a:	93 00       	.word	0x0093	; ????
     40c:	75 08       	sbc	r7, r5
     40e:	64 62       	ori	r22, 0x24	; 36
     410:	45 e4       	ldi	r20, 0x45	; 69
     412:	29 19       	sub	r18, r9
     414:	76 0c       	add	r7, r6
     416:	65 a2       	std	Z+37, r6	; 0x25
     418:	45 a6       	std	Z+45, r4	; 0x2d
     41a:	25 a5       	ldd	r18, Z+45	; 0x2d
     41c:	24 0b       	sbc	r18, r20
     41e:	23 00       	.word	0x0023	; ????
     420:	77 0e       	add	r7, r23
     422:	67 22       	and	r6, r23
     424:	46 14       	cp	r4, r6
     426:	49 95       	.word	0x9549	; ????
     428:	a6 a4       	ldd	r10, Z+46	; 0x2e
     42a:	96 84       	ldd	r9, Z+14	; 0x0e
     42c:	49 04       	cpc	r4, r9
     42e:	78 0a       	sbc	r7, r24
     430:	65 a2       	std	Z+37, r6	; 0x25
     432:	45 96       	adiw	r24, 0x15	; 21
     434:	d4 2a       	or	r13, r20
     436:	35 2d       	mov	r19, r5
     438:	79 0e       	add	r7, r25
     43a:	85 59       	subi	r24, 0x95	; 149
     43c:	4d 94 44 49 	jmp	0x129288	; 0x129288 <__TEXT_REGION_LENGTH__+0x109288>
     440:	29 c9       	rjmp	.-3502   	; 0xfffff694 <__eeprom_end+0xff7ef694>
     442:	b4 30       	cpi	r27, 0x04	; 4
     444:	d2 00       	.word	0x00d2	; ????
     446:	7a 0a       	sbc	r7, r26
     448:	64 62       	ori	r22, 0x24	; 36
     44a:	c5 90       	lpm	r12, Z+
     44c:	45 6d       	ori	r20, 0xD5	; 213
     44e:	43 00       	.word	0x0043	; ????
     450:	7b 0a       	sbc	r7, r27
     452:	a3 da       	rcall	.-2746   	; 0xfffff99a <__eeprom_end+0xff7ef99a>
     454:	54 12       	cpse	r5, r20
     456:	55 b2       	in	r5, 0x15	; 21
     458:	a8 2d       	mov	r26, r8
     45a:	7c 07       	cpc	r23, r28
     45c:	a1 db       	rcall	.-2238   	; 0xfffffba0 <__eeprom_end+0xff7efba0>
     45e:	c4 43       	sbci	r28, 0x34	; 52
     460:	00 7d       	andi	r16, 0xD0	; 208
     462:	0b a3       	std	Y+35, r16	; 0x23
     464:	da 44       	sbci	r29, 0x4A	; 74
     466:	16 d5       	rcall	.+2604   	; 0xe94 <u8g2_font_decode_len+0x34>
     468:	92 a8       	ldd	r9, Z+50	; 0x32
     46a:	25 02       	muls	r18, r21
     46c:	7e 07       	cpc	r23, r30
     46e:	26 ee       	ldi	r18, 0xE6	; 230
     470:	8d 64       	ori	r24, 0x4D	; 77
     472:	01 a0       	ldd	r0, Z+33	; 0x21
     474:	05 00       	.word	0x0005	; ????
     476:	e6 04       	cpc	r14, r6
     478:	a1 07       	cpc	r26, r17
     47a:	81 db       	rcall	.-2302   	; 0xfffffb7e <__eeprom_end+0xff7efb7e>
     47c:	44 32       	cpi	r20, 0x24	; 36
     47e:	0c a2       	std	Y+36, r0	; 0x24
     480:	0e 85       	ldd	r16, Y+14	; 0x0e
     482:	9f 5d       	subi	r25, 0xDF	; 223
     484:	b4 54       	subi	r27, 0x44	; 68
     486:	94 28       	or	r9, r4
     488:	89 92       	st	Y+, r8
     48a:	ca 94       	dec	r12
     48c:	01 a3       	std	Z+33, r16	; 0x21
     48e:	0c 85       	ldd	r16, Y+12	; 0x0c
     490:	a2 95       	swap	r26
     492:	54 c9       	rjmp	.-3416   	; 0xfffff73c <__eeprom_end+0xff7ef73c>
     494:	b6 b0       	in	r11, 0x06	; 6
     496:	a4 28       	or	r10, r4
     498:	00 a4       	ldd	r0, Z+40	; 0x28
     49a:	0c 64       	ori	r16, 0x4C	; 76
     49c:	66 45       	sbci	r22, 0x56	; 86
     49e:	94 28       	or	r9, r4
     4a0:	91 94       	neg	r9
     4a2:	28 51       	subi	r18, 0x18	; 24
     4a4:	00 a5       	ldd	r16, Z+40	; 0x28
     4a6:	0d 85       	ldd	r16, Y+13	; 0x0d
     4a8:	a2 45       	sbci	r26, 0x52	; 82
     4aa:	66 4b       	sbci	r22, 0xB6	; 182
     4ac:	2a 83       	std	Y+2, r18	; 0x02
     4ae:	14 0d       	add	r17, r4
     4b0:	52 04       	cpc	r5, r2
     4b2:	a6 08       	sbc	r10, r6
     4b4:	a1 db       	rcall	.-2238   	; 0xfffffbf8 <__eeprom_end+0xff7efbf8>
     4b6:	c4 10       	cpse	r12, r4
     4b8:	0d 01       	movw	r0, r26
     4ba:	a7 0f       	add	r26, r23
     4bc:	a5 9a       	sbi	0x14, 5	; 20
     4be:	cd 92       	st	X+, r12
     4c0:	8d 4b       	sbci	r24, 0xBD	; 189
     4c2:	34 44       	sbci	r19, 0x44	; 68
     4c4:	c9 b8       	out	0x09, r12	; 9
     4c6:	25 0b       	sbc	r18, r21
     4c8:	00 a8       	ldd	r0, Z+48	; 0x30
     4ca:	06 13       	cpse	r16, r22
     4cc:	fe 44       	sbci	r31, 0x4E	; 78
     4ce:	12 a9       	ldd	r17, Z+50	; 0x32
     4d0:	0e 77       	andi	r16, 0x7E	; 126
     4d2:	63 d6       	rcall	.+3270   	; 0x119a <u8g2_font_get_glyph_data+0x92>
     4d4:	56 89       	ldd	r21, Z+22	; 0x16
     4d6:	14 25       	eor	r17, r4
     4d8:	93 94       	inc	r9
     4da:	5a 36       	cpi	r21, 0x6A	; 106
     4dc:	01 aa       	std	Z+49, r0	; 0x31
     4de:	08 53       	subi	r16, 0x38	; 56
     4e0:	2e c5       	rjmp	.+2652   	; 0xf3e <u8g2_font_decode_len+0xde>
     4e2:	a4 64       	ori	r26, 0x44	; 68
     4e4:	03 ab       	std	Z+51, r16	; 0x33
     4e6:	0a 55       	subi	r16, 0x5A	; 90
     4e8:	a2 55       	subi	r26, 0x52	; 82
     4ea:	d2 5b       	subi	r29, 0xB2	; 178
     4ec:	92 25       	eor	r25, r2
     4ee:	01 ac       	ldd	r0, Z+57	; 0x39
     4f0:	07 35       	cpi	r16, 0x57	; 87
     4f2:	eb c5       	rjmp	.+3030   	; 0x10ca <u8g2_font_decode_glyph+0x136>
     4f4:	20 16       	cp	r2, r16
     4f6:	ad 06       	cpc	r10, r29
     4f8:	13 2e       	mov	r1, r19
     4fa:	c5 00       	.word	0x00c5	; ????
     4fc:	ae 0d       	add	r26, r14
     4fe:	77 63       	ori	r23, 0x37	; 55
     500:	d6 56       	subi	r29, 0x66	; 102
     502:	49 16       	cp	r4, r25
     504:	93 d2       	rcall	.+1318   	; 0xa2c <u8x8_avr_delay+0x32>
     506:	2d 9b       	sbis	0x05, 5	; 5
     508:	00 af       	std	Z+56, r16	; 0x38
     50a:	06 13       	cpse	r16, r22
     50c:	fe c4       	rjmp	.+2556   	; 0xf0a <u8g2_font_decode_len+0xaa>
     50e:	00 b0       	in	r0, 0x00	; 0
     510:	09 44       	sbci	r16, 0x49	; 73
     512:	32 8d       	ldd	r19, Z+26	; 0x1a
     514:	12 49       	sbci	r17, 0x92	; 146
     516:	89 02       	muls	r24, r25
     518:	b1 0c       	add	r11, r1
     51a:	75 a2       	std	Z+37, r7	; 0x25
     51c:	55 18       	sub	r5, r5
     51e:	0d 52       	subi	r16, 0x2D	; 45
     520:	98 03       	fmulsu	r17, r16
     522:	83 00       	.word	0x0083	; ????
     524:	b2 07       	cpc	r27, r18
     526:	43 f2       	brvs	.-112    	; 0x4b8 <__LOCK_REGION_LENGTH__+0xb8>
     528:	cc 52       	subi	r28, 0x2C	; 44
     52a:	19 b3       	in	r17, 0x19	; 25
     52c:	08 43       	sbci	r16, 0x38	; 56
     52e:	f2 c4       	rjmp	.+2532   	; 0xf14 <u8g2_font_decode_len+0xb4>
     530:	92 2d       	mov	r25, r2
     532:	00 b4       	in	r0, 0x20	; 32
     534:	06 22       	and	r0, r22
     536:	fe 8c       	ldd	r15, Y+30	; 0x1e
     538:	02 b5       	in	r16, 0x22	; 34
     53a:	0a 84       	ldd	r0, Y+10	; 0x0a
     53c:	5a 45       	sbci	r21, 0x5A	; 90
     53e:	e4 69       	ori	r30, 0x94	; 148
     540:	d8 32       	cpi	r29, 0x28	; 40
     542:	00 b6       	in	r0, 0x30	; 48
     544:	15 a6       	std	Z+45, r1	; 0x2d
     546:	9a cd       	rjmp	.-1228   	; 0x7c <__trampolines_end+0x14>
     548:	30 28       	or	r3, r0
     54a:	c9 92       	st	Y+, r12
     54c:	2c 91       	ld	r18, X
     54e:	92 25       	eor	r25, r2
     550:	59 92       	st	Y+, r5
     552:	25 59       	subi	r18, 0x95	; 149
     554:	92 25       	eor	r25, r2
     556:	09 00       	.word	0x0009	; ????
     558:	b7 06       	cpc	r11, r23
     55a:	12 ee       	ldi	r17, 0xE2	; 226
     55c:	84 00       	.word	0x0084	; ????
     55e:	b8 06       	cpc	r11, r24
     560:	22 da       	rcall	.-3004   	; 0xfffff9a6 <__eeprom_end+0xff7ef9a6>
     562:	cc 00       	.word	0x00cc	; ????
     564:	b9 06       	cpc	r11, r25
     566:	42 f2       	brmi	.-112    	; 0x4f8 <__LOCK_REGION_LENGTH__+0xf8>
     568:	cc 52       	subi	r28, 0x2C	; 44
     56a:	ba 09       	sbc	r27, r10
     56c:	53 2e       	mov	r5, r19
     56e:	c5 90       	lpm	r12, Z+
     570:	0c d9       	rcall	.-3560   	; 0xfffff78a <__eeprom_end+0xff7ef78a>
     572:	00 bb       	out	0x10, r16	; 16
     574:	0b 55       	subi	r16, 0x5B	; 91
     576:	a2 45       	sbci	r26, 0x52	; 82
     578:	92 25       	eor	r25, r2
     57a:	59 d2       	rcall	.+1202   	; 0xa2e <u8x8_avr_delay+0x34>
     57c:	13 00       	.word	0x0013	; ????
     57e:	bc 13       	cpse	r27, r28
     580:	89 62       	ori	r24, 0x29	; 41
     582:	4e 96       	adiw	r24, 0x1e	; 30
     584:	69 61       	ori	r22, 0x19	; 25
     586:	94 46       	sbci	r25, 0x64	; 100
     588:	39 90       	ld	r3, Y+
     58a:	85 91       	lpm	r24, Z+
     58c:	16 0d       	add	r17, r6
     58e:	51 98       	cbi	0x0a, 1	; 10
     590:	00 bd       	out	0x20, r16	; 32
     592:	10 88       	ldd	r1, Z+16	; 0x10
     594:	62 4e       	sbci	r22, 0xE2	; 226
     596:	16 69       	ori	r17, 0x96	; 150
     598:	a5 30       	cpi	r26, 0x05	; 5
     59a:	8a 23       	and	r24, r26
     59c:	2d 29       	or	r18, r13
     59e:	65 a5       	ldd	r22, Z+45	; 0x2d
     5a0:	01 be       	out	0x31, r0	; 49
     5a2:	13 89       	ldd	r17, Z+19	; 0x13
     5a4:	62 c6       	rjmp	.+3268   	; 0x126a <u8g2_DrawGlyph+0x3c>
     5a6:	0e 64       	ori	r16, 0x4E	; 78
     5a8:	69 94       	.word	0x9469	; ????
     5aa:	49 39       	cpi	r20, 0x99	; 153
     5ac:	12 85       	ldd	r17, Z+10	; 0x0a
     5ae:	91 98       	cbi	0x12, 1	; 18
     5b0:	0c 51       	subi	r16, 0x1C	; 28
     5b2:	98 00       	.word	0x0098	; ????
     5b4:	bf 0c       	add	r11, r15
     5b6:	84 9b       	sbis	0x10, 4	; 16
     5b8:	55 0e       	add	r5, r21
     5ba:	64 51       	subi	r22, 0x14	; 20
     5bc:	2d 4a       	sbci	r18, 0xAD	; 173
     5be:	14 00       	.word	0x0014	; ????
     5c0:	c0 10       	cpse	r12, r0
     5c2:	b7 e2       	ldi	r27, 0x27	; 39
     5c4:	55 0e       	add	r5, r21
     5c6:	e4 70       	andi	r30, 0x04	; 4
     5c8:	35 09       	sbc	r19, r5
     5ca:	93 ac       	ldd	r9, Z+59	; 0x3b
     5cc:	34 28       	or	r3, r4
     5ce:	a9 1a       	sub	r10, r25
     5d0:	c1 10       	cpse	r12, r1
     5d2:	b7 e2       	ldi	r27, 0x27	; 39
     5d4:	65 9a       	sbi	0x0c, 5	; 12
     5d6:	c3 d5       	rcall	.+2950   	; 0x115e <u8g2_font_get_glyph_data+0x56>
     5d8:	24 4c       	sbci	r18, 0xC4	; 196
     5da:	b2 d2       	rcall	.+1380   	; 0xb40 <u8g2_send_buffer+0xa>
     5dc:	a0 a4       	ldd	r10, Z+40	; 0x28
     5de:	6a 00       	.word	0x006a	; ????
     5e0:	c2 11       	cpse	r28, r2
     5e2:	b7 e2       	ldi	r27, 0x27	; 39
     5e4:	5d 9a       	sbi	0x0b, 5	; 11
     5e6:	e4 68       	ori	r30, 0x84	; 132
     5e8:	9c 26       	eor	r9, r28
     5ea:	61 92       	st	Z+, r6
     5ec:	95 06       	cpc	r9, r21
     5ee:	25 55       	subi	r18, 0x55	; 85
     5f0:	03 c3       	rjmp	.+1542   	; 0xbf8 <u8g2_ClearBuffer+0x2a>
     5f2:	12 b7       	in	r17, 0x32	; 50
     5f4:	e2 5d       	subi	r30, 0xD2	; 210
     5f6:	92 25       	eor	r25, r2
     5f8:	39 1a       	sub	r3, r25
     5fa:	a7 49       	sbci	r26, 0x97	; 151
     5fc:	98 64       	ori	r25, 0x48	; 72
     5fe:	a5 41       	sbci	r26, 0x15	; 21
     600:	49 d5       	rcall	.+2706   	; 0x1094 <u8g2_font_decode_glyph+0x100>
     602:	00 c4       	rjmp	.+2048   	; 0xe04 <u8g2_font_setup_decode+0x20>
     604:	10 a7       	std	Z+40, r17	; 0x28
     606:	e2 55       	subi	r30, 0x52	; 82
     608:	92 a3       	std	Z+34, r25	; 0x22
     60a:	71 9a       	sbi	0x0e, 1	; 14
     60c:	84 49       	sbci	r24, 0x94	; 148
     60e:	56 1a       	sub	r5, r22
     610:	94 54       	subi	r25, 0x44	; 68
     612:	0d c5       	rjmp	.+2586   	; 0x102e <u8g2_font_decode_glyph+0x9a>
     614:	10 b7       	in	r17, 0x30	; 48
     616:	e2 5d       	subi	r30, 0xD2	; 210
     618:	9a a4       	ldd	r9, Y+42	; 0x2a
     61a:	71 35       	cpi	r23, 0x51	; 81
     61c:	09 93       	st	Y+, r16
     61e:	ac 34       	cpi	r26, 0x4C	; 76
     620:	28 a9       	ldd	r18, Y+48	; 0x30
     622:	1a c6       	rjmp	.+3124   	; 0x1258 <u8g2_DrawGlyph+0x2a>
     624:	12 89       	ldd	r17, Z+18	; 0x12
     626:	a2 de       	rcall	.-700    	; 0x36c <__trampolines_end+0x304>
     628:	b0 c9       	rjmp	.-3232   	; 0xfffff98a <__eeprom_end+0xff7ef98a>
     62a:	49 9c       	mul	r4, r9
     62c:	0c 4a       	sbci	r16, 0xAC	; 172
     62e:	94 0e       	add	r9, r20
     630:	61 16       	cp	r6, r17
     632:	66 83       	std	Z+6, r22	; 0x06
     634:	00 c7       	rjmp	.+3584   	; 0x1436 <u8g2_DrawHVLine+0x6>
     636:	0d a6       	std	Y+45, r0	; 0x2d
     638:	1b ce       	rjmp	.-970    	; 0x270 <__trampolines_end+0x208>
     63a:	90 84       	ldd	r9, Z+8	; 0x08
     63c:	6a c7       	rjmp	.+3796   	; 0x1512 <u8g2_is_intersection_decision_tree+0x4>
     63e:	64 08       	sbc	r6, r4
     640:	43 09       	sbc	r20, r3
     642:	c8 0d       	add	r28, r8
     644:	b5 e3       	ldi	r27, 0x35	; 53
     646:	4d 9a       	sbi	0x09, 5	; 9
     648:	03 c7       	rjmp	.+3590   	; 0x1450 <u8g2_DrawHVLine+0x20>
     64a:	70 18       	sub	r7, r0
     64c:	8b 83       	std	Y+3, r24	; 0x03
     64e:	00 c9       	rjmp	.-3584   	; 0xfffff850 <__eeprom_end+0xff7ef850>
     650:	0c b5       	in	r16, 0x2c	; 44
     652:	e3 5d       	subi	r30, 0xD3	; 211
     654:	1d 38       	cpi	r17, 0x8D	; 141
     656:	86 c3       	rjmp	.+1804   	; 0xd64 <u8g2_read_font_info+0x9e>
     658:	58 1c       	adc	r5, r8
     65a:	04 ca       	rjmp	.-3064   	; 0xfffffa64 <__eeprom_end+0xff7efa64>
     65c:	0d b5       	in	r16, 0x2d	; 45
     65e:	e3 55       	subi	r30, 0x53	; 83
     660:	96 c4       	rjmp	.+2348   	; 0xf8e <u8g2_font_decode_len+0x12e>
     662:	c3 18       	sub	r12, r3
     664:	0e 63       	ori	r16, 0x3E	; 62
     666:	71 10       	cpse	r7, r1
     668:	cb 0c       	add	r12, r11
     66a:	a5 e3       	ldi	r26, 0x35	; 53
     66c:	4d 79       	andi	r20, 0x9D	; 157
     66e:	18 c3       	rjmp	.+1584   	; 0xca0 <u8g2_add_vector_y+0x16>
     670:	61 2c       	mov	r6, r1
     672:	0e 02       	muls	r16, r30
     674:	cc 09       	sbc	r28, r12
     676:	b2 e2       	ldi	r27, 0x22	; 34
     678:	44 94       	.word	0x9444	; ????
     67a:	25 fd       	sbrc	r18, 5
     67c:	00 cd       	rjmp	.-1536   	; 0x7e <__trampolines_end+0x16>
     67e:	09 b2       	in	r0, 0x19	; 25
     680:	e3 8c       	ldd	r14, Z+27	; 0x1b
     682:	96 f4       	brtc	.+36     	; 0x6a8 <__LOCK_REGION_LENGTH__+0x2a8>
     684:	0b 00       	.word	0x000b	; ????
     686:	ce 09       	sbc	r28, r14
     688:	b3 e2       	ldi	r27, 0x23	; 35
     68a:	4c 63       	ori	r20, 0x3C	; 60
     68c:	d4 2f       	mov	r29, r20
     68e:	00 cf       	rjmp	.-512    	; 0x490 <__LOCK_REGION_LENGTH__+0x90>
     690:	09 a3       	std	Y+33, r16	; 0x21
     692:	e2 44       	sbci	r30, 0x42	; 66
     694:	12 46       	sbci	r17, 0x62	; 98
     696:	fd 02       	muls	r31, r29
     698:	d0 11       	cpse	r29, r0
     69a:	87 22       	and	r8, r23
     69c:	ce 90       	ld	r12, -X
     69e:	95 c2       	rjmp	.+1322   	; 0xbca <u8g2_send_buffer+0x94>
     6a0:	41 4a       	sbci	r20, 0xA1	; 161
     6a2:	c2 24       	eor	r12, r2
     6a4:	4c b2       	in	r4, 0x1c	; 28
     6a6:	68 88       	ldd	r6, Y+16	; 0x10
     6a8:	00 d1       	rcall	.+512    	; 0x8aa <__LOCK_REGION_LENGTH__+0x4aa>
     6aa:	12 b6       	in	r1, 0x32	; 50
     6ac:	23 56       	subi	r18, 0x63	; 99
     6ae:	12 25       	eor	r17, r2
     6b0:	39 a2       	std	Y+33, r3	; 0x21
     6b2:	6d 4a       	sbci	r22, 0xAD	; 173
     6b4:	a4 44       	sbci	r26, 0x44	; 68
     6b6:	52 22       	and	r5, r18
     6b8:	25 da       	rcall	.-2998   	; 0xfffffb04 <__eeprom_end+0xff7efb04>
     6ba:	26 d2       	rcall	.+1100   	; 0xb08 <u8x8_avr_gpio_and_delay+0x7c>
     6bc:	0e b6       	in	r0, 0x3e	; 62
     6be:	23 56       	subi	r18, 0x63	; 99
     6c0:	9c 43       	sbci	r25, 0x3C	; 60
     6c2:	43 12       	cpse	r4, r19
     6c4:	fa 98       	cbi	0x1f, 2	; 31
     6c6:	0c 09       	sbc	r16, r12
     6c8:	00 d3       	rcall	.+1536   	; 0xcca <u8g2_read_font_info+0x4>
     6ca:	0d b6       	in	r0, 0x3d	; 61
     6cc:	23 66       	ori	r18, 0x63	; 99
     6ce:	1d 1a       	sub	r1, r29
     6d0:	92 d0       	rcall	.+292    	; 0x7f6 <__LOCK_REGION_LENGTH__+0x3f6>
     6d2:	c7 64       	ori	r28, 0x47	; 71
     6d4:	48 00       	.word	0x0048	; ????
     6d6:	d4 0e       	add	r13, r20
     6d8:	b6 23       	and	r27, r22
     6da:	56 98       	cbi	0x0a, 6	; 10
     6dc:	e4 d0       	rcall	.+456    	; 0x8a6 <__LOCK_REGION_LENGTH__+0x4a6>
     6de:	90 84       	ldd	r9, Z+8	; 0x08
     6e0:	3e 26       	eor	r3, r30
     6e2:	43 02       	muls	r20, r19
     6e4:	d5 0f       	add	r29, r21
     6e6:	b6 23       	and	r27, r22
     6e8:	56 12       	cpse	r5, r22
     6ea:	25 39       	cpi	r18, 0x95	; 149
     6ec:	34 24       	eor	r3, r4
     6ee:	a1 8f       	std	Z+25, r26	; 0x19
     6f0:	c9 90       	ld	r12, Y+
     6f2:	00 d6       	rcall	.+3072   	; 0x12f4 <u8g2_draw_string+0x42>
     6f4:	0e a6       	std	Y+46, r0	; 0x2e
     6f6:	23 4e       	sbci	r18, 0xE3	; 227
     6f8:	94 23       	and	r25, r20
     6fa:	43 12       	cpse	r4, r19
     6fc:	fa 98       	cbi	0x1f, 2	; 31
     6fe:	0c 09       	sbc	r16, r12
     700:	00 d7       	rcall	.+3584   	; 0x1502 <u8g2_DrawHVLine+0xd2>
     702:	0a 55       	subi	r16, 0x5A	; 90
     704:	a6 45       	sbci	r26, 0x56	; 86
     706:	96 d4       	rcall	.+2348   	; 0x1034 <u8g2_font_decode_glyph+0xa0>
     708:	2a b5       	in	r18, 0x2a	; 42
     70a:	00 d8       	rcall	.-4096   	; 0xfffff70c <__eeprom_end+0xff7ef70c>
     70c:	12 a6       	std	Z+42, r1	; 0x2a
     70e:	1f 6e       	ori	r17, 0xEF	; 239
     710:	32 24       	eor	r3, r2
     712:	d9 94       	.word	0x94d9	; ????
     714:	48 89       	ldd	r20, Y+16	; 0x10
     716:	12 29       	or	r17, r2
     718:	d1 96       	adiw	r26, 0x31	; 49
     71a:	0c 49       	sbci	r16, 0x9C	; 156
     71c:	0a d9       	rcall	.-3564   	; 0xfffff932 <__eeprom_end+0xff7ef932>
     71e:	0c b6       	in	r0, 0x3c	; 60
     720:	23 56       	subi	r18, 0x63	; 99
     722:	9c 23       	and	r25, r28
     724:	a1 1f       	adc	r26, r17
     726:	93 21       	and	r25, r3
     728:	01 da       	rcall	.-3070   	; 0xfffffb2c <__eeprom_end+0xff7efb2c>
     72a:	0c b6       	in	r0, 0x3c	; 60
     72c:	23 66       	ori	r18, 0x63	; 99
     72e:	1d 09       	sbc	r17, r13
     730:	fd 98       	cbi	0x1f, 5	; 31
     732:	0c 09       	sbc	r16, r12
     734:	00 db       	rcall	.-2560   	; 0xfffffd36 <__eeprom_end+0xff7efd36>
     736:	0d b6       	in	r0, 0x3d	; 61
     738:	23 56       	subi	r18, 0x63	; 99
     73a:	98 e4       	ldi	r25, 0x48	; 72
     73c:	48 e8       	ldi	r20, 0x88	; 136
     73e:	c7 64       	ori	r28, 0x47	; 71
     740:	48 00       	.word	0x0048	; ????
     742:	dc 0c       	add	r13, r12
     744:	a6 23       	and	r26, r22
     746:	4e 94 03 a1 	call	0x114206	; 0x114206 <__TEXT_REGION_LENGTH__+0xf4206>
     74a:	1f 93       	push	r17
     74c:	21 01       	movw	r4, r2
     74e:	dd 10       	cpse	r13, r13
     750:	b7 e2       	ldi	r27, 0x27	; 39
     752:	65 9a       	sbi	0x0c, 5	; 12
     754:	63 69       	ori	r22, 0x93	; 147
     756:	92 45       	sbci	r25, 0x52	; 82
     758:	59 25       	eor	r21, r9
     75a:	4c d2       	rcall	.+1176   	; 0xbf4 <u8g2_ClearBuffer+0x26>
     75c:	b8 06       	cpc	r11, r24
     75e:	de 0d       	add	r29, r14
     760:	85 e3       	ldi	r24, 0x35	; 53
     762:	45 18       	sub	r4, r5
     764:	0e 49       	sbci	r16, 0x9E	; 158
     766:	a6 0d       	add	r26, r6
     768:	4a 18       	sub	r4, r10
     76a:	02 df       	rcall	.-508    	; 0x570 <__LOCK_REGION_LENGTH__+0x170>
     76c:	0b 84       	ldd	r0, Y+11	; 0x0b
     76e:	62 8d       	ldd	r22, Z+26	; 0x1a
     770:	12 59       	subi	r17, 0x92	; 146
     772:	4a 2e       	mov	r4, r26
     774:	09 00       	.word	0x0009	; ????
     776:	e0 0e       	add	r14, r16
     778:	95 62       	ori	r25, 0x25	; 37
     77a:	4d 9a       	sbi	0x09, 5	; 9
     77c:	03 6b       	ori	r16, 0xB3	; 179
     77e:	b4 44       	sbci	r27, 0x44	; 68
     780:	49 14       	cp	r4, r9
     782:	29 01       	movw	r4, r18
     784:	e1 0e       	add	r14, r17
     786:	95 62       	ori	r25, 0x25	; 37
     788:	55 96       	adiw	r26, 0x15	; 21
     78a:	23 6b       	ori	r18, 0xB3	; 179
     78c:	b4 44       	sbci	r27, 0x44	; 68
     78e:	49 14       	cp	r4, r9
     790:	29 01       	movw	r4, r18
     792:	e2 0e       	add	r14, r18
     794:	95 62       	ori	r25, 0x25	; 37
     796:	55 96       	adiw	r26, 0x15	; 21
     798:	c4 6b       	ori	r28, 0xB4	; 180
     79a:	b4 44       	sbci	r27, 0x44	; 68
     79c:	49 14       	cp	r4, r9
     79e:	29 01       	movw	r4, r18
     7a0:	e3 0d       	add	r30, r3
     7a2:	95 62       	ori	r25, 0x25	; 37
     7a4:	4d 77       	andi	r20, 0x7D	; 125
     7a6:	60 8d       	ldd	r22, Z+24	; 0x18
     7a8:	96 28       	or	r9, r6
     7aa:	89 22       	and	r8, r25
     7ac:	25 e4       	ldi	r18, 0x45	; 69
     7ae:	0c 85       	ldd	r16, Y+12	; 0x0c
     7b0:	62 4d       	sbci	r22, 0xD2	; 210
     7b2:	79 8d       	ldd	r23, Y+25	; 0x19
     7b4:	96 28       	or	r9, r6
     7b6:	89 22       	and	r8, r25
     7b8:	25 e5       	ldi	r18, 0x55	; 85
     7ba:	0f 95 62 55 	call	0x42aac4	; 0x42aac4 <__TEXT_REGION_LENGTH__+0x40aac4>
     7be:	96 64       	ori	r25, 0x46	; 70
     7c0:	d1 1a       	sub	r13, r17
     7c2:	2d 51       	subi	r18, 0x1D	; 29
     7c4:	12 45       	sbci	r17, 0x52	; 82
     7c6:	4a 00       	.word	0x004a	; ????
     7c8:	e6 0e       	add	r14, r22
     7ca:	67 22       	and	r6, r23
     7cc:	c6 22       	and	r12, r22
     7ce:	46 c9       	rjmp	.-3444   	; 0xfffffa5c <__eeprom_end+0xff7efa5c>
     7d0:	30 44       	sbci	r19, 0x40	; 64
     7d2:	59 54       	subi	r21, 0x49	; 73
     7d4:	b1 00       	.word	0x00b1	; ????
     7d6:	e7 0c       	add	r14, r7
     7d8:	84 5a       	subi	r24, 0xA4	; 164
     7da:	8d 12       	cpse	r8, r29
     7dc:	69 a5       	ldd	r22, Y+41	; 0x29
     7de:	44 8b       	std	Z+20, r20	; 0x14
     7e0:	14 00       	.word	0x0014	; ????
     7e2:	e8 0c       	add	r14, r8
     7e4:	94 62       	ori	r25, 0x24	; 36
     7e6:	4d 18       	sub	r4, r13
     7e8:	2b d1       	rcall	.+598    	; 0xa40 <u8x8_avr_delay+0x46>
     7ea:	b0 45       	sbci	r27, 0x50	; 80
     7ec:	89 02       	muls	r24, r25
     7ee:	e9 0c       	add	r14, r9
     7f0:	94 62       	ori	r25, 0x24	; 36
     7f2:	55 1d       	adc	r21, r5
     7f4:	50 a2       	std	Z+32, r5	; 0x20
     7f6:	61 8b       	std	Z+17, r22	; 0x11
     7f8:	12 05       	cpc	r17, r2
     7fa:	ea 0d       	add	r30, r10
     7fc:	94 62       	ori	r25, 0x24	; 36
     7fe:	4d 94 c4 4a 	jmp	0x129588	; 0x129588 <__TEXT_REGION_LENGTH__+0x109588>
     802:	34 6c       	ori	r19, 0xC4	; 196
     804:	51 a2       	std	Z+33, r5	; 0x21
     806:	00 eb       	ldi	r16, 0xB0	; 176
     808:	0c 84       	ldd	r0, Y+12	; 0x0c
     80a:	62 45       	sbci	r22, 0x52	; 82
     80c:	12 2b       	or	r17, r18
     80e:	d1 b0       	in	r13, 0x01	; 1
     810:	45 89       	ldd	r20, Z+21	; 0x15
     812:	02 ec       	ldi	r16, 0xC2	; 194
     814:	08 92       	.word	0x9208	; ????
     816:	a1 44       	sbci	r26, 0x41	; 65
     818:	94 25       	eor	r25, r4
     81a:	3d ed       	ldi	r19, 0xDD	; 221
     81c:	08 92       	.word	0x9208	; ????
     81e:	a2 8c       	ldd	r10, Z+26	; 0x1a
     820:	96 f4       	brtc	.+36     	; 0x846 <__LOCK_REGION_LENGTH__+0x446>
     822:	02 ee       	ldi	r16, 0xE2	; 226
     824:	09 93       	st	Y+, r16
     826:	a1 4c       	sbci	r26, 0xC1	; 193
     828:	63 d4       	rcall	.+2246   	; 0x10f0 <u8g2_font_decode_glyph+0x15c>
     82a:	0b 00       	.word	0x000b	; ????
     82c:	ef 09       	sbc	r30, r15
     82e:	83 a1       	ldd	r24, Z+35	; 0x23
     830:	44 12       	cpse	r4, r20
     832:	46 bd       	out	0x26, r20	; 38
     834:	00 f0       	brcs	.+0      	; 0x836 <__LOCK_REGION_LENGTH__+0x436>
     836:	0d 95 a2 4d 	jmp	0x429b44	; 0x429b44 <__TEXT_REGION_LENGTH__+0x409b44>
     83a:	38 48       	sbci	r19, 0x88	; 136
     83c:	d1 a0       	ldd	r13, Z+33	; 0x21
     83e:	b9 25       	eor	r27, r9
     840:	0b 00       	.word	0x000b	; ????
     842:	f1 0a       	sbc	r15, r17
     844:	94 62       	ori	r25, 0x24	; 36
     846:	4d a2       	std	Y+37, r4	; 0x25
     848:	a4 4b       	sbci	r26, 0xB4	; 180
     84a:	e4 29       	or	r30, r4
     84c:	f2 0c       	add	r15, r2
     84e:	95 a2       	std	Z+37, r9	; 0x25
     850:	4d 9a       	sbi	0x09, 5	; 9
     852:	23 4b       	sbci	r18, 0xB3	; 179
     854:	e6 96       	adiw	r28, 0x36	; 54
     856:	2c 00       	.word	0x002c	; ????
     858:	f3 0b       	sbc	r31, r19
     85a:	95 a2       	std	Z+37, r9	; 0x25
     85c:	5d 1d       	adc	r21, r13
     85e:	59 32       	cpi	r21, 0x29	; 41
     860:	b7 64       	ori	r27, 0x47	; 71
     862:	01 f4       	brne	.+0      	; 0x864 <__LOCK_REGION_LENGTH__+0x464>
     864:	0d 95 a2 55 	jmp	0x42ab44	; 0x42ab44 <__TEXT_REGION_LENGTH__+0x40ab44>
     868:	96 e4       	ldi	r25, 0x46	; 70
     86a:	c0 92 b9 25 	sts	0x25B9, r12	; 0x8025b9 <__bss_end+0x1f87>
     86e:	0b 00       	.word	0x000b	; ????
     870:	f5 0c       	add	r15, r5
     872:	95 a2       	std	Z+37, r9	; 0x25
     874:	55 d2       	rcall	.+1194   	; 0xd20 <u8g2_read_font_info+0x5a>
     876:	0e 2c       	mov	r0, r14
     878:	99 5b       	subi	r25, 0xB9	; 185
     87a:	b2 00       	.word	0x00b2	; ????
     87c:	f6 0b       	sbc	r31, r22
     87e:	85 a2       	std	Z+37, r8	; 0x25
     880:	4d 1d       	adc	r20, r13
     882:	58 32       	cpi	r21, 0x28	; 40
     884:	b7 64       	ori	r27, 0x47	; 71
     886:	01 f7       	brne	.-64     	; 0x848 <__LOCK_REGION_LENGTH__+0x448>
     888:	0a 55       	subi	r16, 0x5A	; 90
     88a:	a6 55       	subi	r26, 0x56	; 86
     88c:	0e 0c       	add	r0, r14
     88e:	3a 10       	cpse	r3, r10
     890:	01 f8       	bld	r0, 1
     892:	0d 67       	ori	r16, 0x7D	; 125
     894:	a1 d5       	rcall	.+2882   	; 0x13d8 <u8g2_UpdateRefHeight+0x7e>
     896:	52 92       	st	-Z, r5
     898:	92 92       	st	-Z, r9
     89a:	54 4b       	sbci	r21, 0xB4	; 180
     89c:	92 09       	sbc	r25, r2
     89e:	f9 0a       	sbc	r15, r25
     8a0:	94 62       	ori	r25, 0x24	; 36
     8a2:	4d 98       	cbi	0x09, 5	; 9
     8a4:	46 9e       	mul	r4, r22
     8a6:	92 01       	movw	r18, r4
     8a8:	fa 0a       	sbc	r15, r26
     8aa:	94 62       	ori	r25, 0x24	; 36
     8ac:	5d 94 46 9e 	jmp	0x173c8c	; 0x173c8c <__TEXT_REGION_LENGTH__+0x153c8c>
     8b0:	92 01       	movw	r18, r4
     8b2:	fb 0a       	sbc	r15, r27
     8b4:	94 62       	ori	r25, 0x24	; 36
     8b6:	4d 94 a4 91 	jmp	0x132348	; 0x132348 <__TEXT_REGION_LENGTH__+0x112348>
     8ba:	a7 64       	ori	r26, 0x47	; 71
     8bc:	fc 0a       	sbc	r15, r28
     8be:	84 62       	ori	r24, 0x24	; 36
     8c0:	45 92       	las	Z, r4
     8c2:	46 9e       	mul	r4, r22
     8c4:	92 01       	movw	r18, r4
     8c6:	fd 10       	cpse	r15, r13
     8c8:	b5 59       	subi	r27, 0x95	; 149
     8ca:	65 96       	adiw	r28, 0x15	; 21
     8cc:	03 51       	subi	r16, 0x13	; 19
     8ce:	12 25       	eor	r17, r2
     8d0:	a5 24       	eor	r10, r5
     8d2:	d3 c2       	rjmp	.+1446   	; 0xe7a <u8g2_font_decode_len+0x1a>
     8d4:	48 03       	fmul	r20, r16
     8d6:	fe 0d       	add	r31, r14
     8d8:	a5 9a       	sbi	0x14, 5	; 20
     8da:	45 58       	subi	r20, 0x85	; 133
     8dc:	31 69       	ori	r19, 0x91	; 145
     8de:	da a4       	ldd	r13, Y+42	; 0x2a
     8e0:	28 61       	ori	r18, 0x18	; 24
     8e2:	08 ff       	.word	0xff08	; ????
     8e4:	10 a5       	ldd	r17, Z+40	; 0x28
     8e6:	59 4d       	sbci	r21, 0xD9	; 217
     8e8:	1d 88       	ldd	r1, Y+21	; 0x15
     8ea:	92 28       	or	r9, r2
     8ec:	29 25       	eor	r18, r9
     8ee:	99 16       	cp	r9, r25
     8f0:	46 1a       	sub	r4, r22
     8f2:	00 00       	nop
     8f4:	00 00       	nop
     8f6:	04 ff       	sbrs	r16, 4
     8f8:	ff 00       	.word	0x00ff	; ????
	...

000008fc <__ctors_end>:
     8fc:	11 24       	eor	r1, r1
     8fe:	1f be       	out	0x3f, r1	; 63
     900:	cf ef       	ldi	r28, 0xFF	; 255
     902:	d8 e0       	ldi	r29, 0x08	; 8
     904:	de bf       	out	0x3e, r29	; 62
     906:	cd bf       	out	0x3d, r28	; 61

00000908 <__do_copy_data>:
     908:	11 e0       	ldi	r17, 0x01	; 1
     90a:	a0 e0       	ldi	r26, 0x00	; 0
     90c:	b1 e0       	ldi	r27, 0x01	; 1
     90e:	e6 e3       	ldi	r30, 0x36	; 54
     910:	f6 e2       	ldi	r31, 0x26	; 38
     912:	02 c0       	rjmp	.+4      	; 0x918 <__do_copy_data+0x10>
     914:	05 90       	lpm	r0, Z+
     916:	0d 92       	st	X+, r0
     918:	ac 38       	cpi	r26, 0x8C	; 140
     91a:	b1 07       	cpc	r27, r17
     91c:	d9 f7       	brne	.-10     	; 0x914 <__do_copy_data+0xc>

0000091e <__do_clear_bss>:
     91e:	26 e0       	ldi	r18, 0x06	; 6
     920:	ac e8       	ldi	r26, 0x8C	; 140
     922:	b1 e0       	ldi	r27, 0x01	; 1
     924:	01 c0       	rjmp	.+2      	; 0x928 <.do_clear_bss_start>

00000926 <.do_clear_bss_loop>:
     926:	1d 92       	st	X+, r1

00000928 <.do_clear_bss_start>:
     928:	a2 33       	cpi	r26, 0x32	; 50
     92a:	b2 07       	cpc	r27, r18
     92c:	e1 f7       	brne	.-8      	; 0x926 <.do_clear_bss_loop>
     92e:	0e 94 06 0f 	call	0x1e0c	; 0x1e0c <main>
     932:	0c 94 19 13 	jmp	0x2632	; 0x2632 <_exit>

00000936 <__bad_interrupt>:
     936:	0c 94 00 00 	jmp	0	; 0x0 <__vectors>

0000093a <OLED_FunScreen>:



void OLED_FunScreen(void)
{
	u8g2_ClearBuffer(&u8g2);
     93a:	80 ec       	ldi	r24, 0xC0	; 192
     93c:	95 e0       	ldi	r25, 0x05	; 5
     93e:	0e 94 e7 05 	call	0xbce	; 0xbce <u8g2_ClearBuffer>
	u8g2_SetFont(&u8g2, u8g2_font_helvR08_tf  );
     942:	68 e6       	ldi	r22, 0x68	; 104
     944:	70 e0       	ldi	r23, 0x00	; 0
     946:	80 ec       	ldi	r24, 0xC0	; 192
     948:	95 e0       	ldi	r25, 0x05	; 5
     94a:	0e 94 f6 09 	call	0x13ec	; 0x13ec <u8g2_SetFont>
	u8g2_DrawStr(&u8g2, 40, 8, "oLog GPS");
     94e:	20 e0       	ldi	r18, 0x00	; 0
     950:	31 e0       	ldi	r19, 0x01	; 1
     952:	48 e0       	ldi	r20, 0x08	; 8
     954:	68 e2       	ldi	r22, 0x28	; 40
     956:	80 ec       	ldi	r24, 0xC0	; 192
     958:	95 e0       	ldi	r25, 0x05	; 5
     95a:	0e 94 a3 09 	call	0x1346	; 0x1346 <u8g2_DrawStr>
	
	sprintf(buff_cnt, "%lu", cnt);
     95e:	80 91 29 06 	lds	r24, 0x0629	; 0x800629 <cnt+0x3>
     962:	8f 93       	push	r24
     964:	80 91 28 06 	lds	r24, 0x0628	; 0x800628 <cnt+0x2>
     968:	8f 93       	push	r24
     96a:	80 91 27 06 	lds	r24, 0x0627	; 0x800627 <cnt+0x1>
     96e:	8f 93       	push	r24
     970:	80 91 26 06 	lds	r24, 0x0626	; 0x800626 <cnt>
     974:	8f 93       	push	r24
     976:	89 e0       	ldi	r24, 0x09	; 9
     978:	91 e0       	ldi	r25, 0x01	; 1
     97a:	9f 93       	push	r25
     97c:	8f 93       	push	r24
     97e:	8c ea       	ldi	r24, 0xAC	; 172
     980:	95 e0       	ldi	r25, 0x05	; 5
     982:	9f 93       	push	r25
     984:	8f 93       	push	r24
     986:	0e 94 2f 10 	call	0x205e	; 0x205e <sprintf>
	u8g2_DrawStr(&u8g2, 45, 25, buff_cnt);
     98a:	2c ea       	ldi	r18, 0xAC	; 172
     98c:	35 e0       	ldi	r19, 0x05	; 5
     98e:	49 e1       	ldi	r20, 0x19	; 25
     990:	6d e2       	ldi	r22, 0x2D	; 45
     992:	80 ec       	ldi	r24, 0xC0	; 192
     994:	95 e0       	ldi	r25, 0x05	; 5
     996:	0e 94 a3 09 	call	0x1346	; 0x1346 <u8g2_DrawStr>
	
	
	sprintf(buff, "%d %s %d %s %d", timer.hours, " : ", timer.minutes, " : ", timer.seconds);
     99a:	eb e2       	ldi	r30, 0x2B	; 43
     99c:	f6 e0       	ldi	r31, 0x06	; 6
     99e:	86 81       	ldd	r24, Z+6	; 0x06
     9a0:	1f 92       	push	r1
     9a2:	8f 93       	push	r24
     9a4:	8d e0       	ldi	r24, 0x0D	; 13
     9a6:	91 e0       	ldi	r25, 0x01	; 1
     9a8:	9f 93       	push	r25
     9aa:	8f 93       	push	r24
     9ac:	25 81       	ldd	r18, Z+5	; 0x05
     9ae:	1f 92       	push	r1
     9b0:	2f 93       	push	r18
     9b2:	9f 93       	push	r25
     9b4:	8f 93       	push	r24
     9b6:	84 81       	ldd	r24, Z+4	; 0x04
     9b8:	1f 92       	push	r1
     9ba:	8f 93       	push	r24
     9bc:	81 e1       	ldi	r24, 0x11	; 17
     9be:	91 e0       	ldi	r25, 0x01	; 1
     9c0:	9f 93       	push	r25
     9c2:	8f 93       	push	r24
     9c4:	8c e9       	ldi	r24, 0x9C	; 156
     9c6:	95 e0       	ldi	r25, 0x05	; 5
     9c8:	9f 93       	push	r25
     9ca:	8f 93       	push	r24
     9cc:	0e 94 2f 10 	call	0x205e	; 0x205e <sprintf>
	u8g2_DrawStr(&u8g2, 45, 45, buff);
     9d0:	2c e9       	ldi	r18, 0x9C	; 156
     9d2:	35 e0       	ldi	r19, 0x05	; 5
     9d4:	4d e2       	ldi	r20, 0x2D	; 45
     9d6:	6d e2       	ldi	r22, 0x2D	; 45
     9d8:	80 ec       	ldi	r24, 0xC0	; 192
     9da:	95 e0       	ldi	r25, 0x05	; 5
     9dc:	0e 94 a3 09 	call	0x1346	; 0x1346 <u8g2_DrawStr>
	u8g2_SendBuffer(&u8g2);
     9e0:	80 ec       	ldi	r24, 0xC0	; 192
     9e2:	95 e0       	ldi	r25, 0x05	; 5
     9e4:	0e 94 fd 05 	call	0xbfa	; 0xbfa <u8g2_SendBuffer>
     9e8:	8d b7       	in	r24, 0x3d	; 61
     9ea:	9e b7       	in	r25, 0x3e	; 62
     9ec:	46 96       	adiw	r24, 0x16	; 22
     9ee:	0f b6       	in	r0, 0x3f	; 63
     9f0:	f8 94       	cli
     9f2:	9e bf       	out	0x3e, r25	; 62
     9f4:	0f be       	out	0x3f, r0	; 63
     9f6:	8d bf       	out	0x3d, r24	; 61
     9f8:	08 95       	ret

000009fa <u8x8_avr_delay>:
/* U8g2 function called during OLED setup */
uint8_t u8x8_avr_delay(u8x8_t *u8x8, uint8_t msg, uint8_t arg_int, void *arg_ptr)
{
	uint8_t cycles;

	switch(msg)
     9fa:	6a 32       	cpi	r22, 0x2A	; 42
     9fc:	51 f0       	breq	.+20     	; 0xa12 <u8x8_avr_delay+0x18>
     9fe:	18 f4       	brcc	.+6      	; 0xa06 <u8x8_avr_delay+0xc>
     a00:	69 32       	cpi	r22, 0x29	; 41
     a02:	69 f0       	breq	.+26     	; 0xa1e <u8x8_avr_delay+0x24>
     a04:	3f c0       	rjmp	.+126    	; 0xa84 <u8x8_avr_delay+0x8a>
     a06:	6b 32       	cpi	r22, 0x2B	; 43
     a08:	81 f0       	breq	.+32     	; 0xa2a <u8x8_avr_delay+0x30>
     a0a:	6c 32       	cpi	r22, 0x2C	; 44
     a0c:	d9 f5       	brne	.+118    	; 0xa84 <u8x8_avr_delay+0x8a>
		}break;
		
		default:
			return 0;
	}
	return 1;
     a0e:	81 e0       	ldi	r24, 0x01	; 1
     a10:	08 95       	ret
			);
		}break;
		
		case U8X8_MSG_DELAY_10MICRO:    // delay arg_int * 10 micro seconds
		{
			for(int i=0 ; i < arg_int ; i++)
     a12:	50 e0       	ldi	r21, 0x00	; 0
     a14:	14 16       	cp	r1, r20
     a16:	15 06       	cpc	r1, r21
     a18:	dc f0       	brlt	.+54     	; 0xa50 <u8x8_avr_delay+0x56>
		}break;
		
		default:
			return 0;
	}
	return 1;
     a1a:	81 e0       	ldi	r24, 0x01	; 1
     a1c:	08 95       	ret
				_delay_us(10);
		}break;
		
		case U8X8_MSG_DELAY_MILLI:      // delay arg_int * 1 milli second
		{
			for(int i=0 ; i < arg_int ; i++)
     a1e:	50 e0       	ldi	r21, 0x00	; 0
     a20:	14 16       	cp	r1, r20
     a22:	15 06       	cpc	r1, r21
     a24:	0c f1       	brlt	.+66     	; 0xa68 <u8x8_avr_delay+0x6e>
		}break;
		
		default:
			return 0;
	}
	return 1;
     a26:	81 e0       	ldi	r24, 0x01	; 1
     a28:	08 95       	ret
		} break;

		case U8X8_MSG_DELAY_100NANO:    // delay arg_int * 100 nano seconds
		{
			// Approximate best case values...
			cycles = (100UL * arg_int) / (P_CPU_NS * CYCLES_PER_LOOP);
     a2a:	24 2f       	mov	r18, r20
     a2c:	30 e0       	ldi	r19, 0x00	; 0
     a2e:	a4 e6       	ldi	r26, 0x64	; 100
     a30:	b0 e0       	ldi	r27, 0x00	; 0
     a32:	0e 94 19 10 	call	0x2032	; 0x2032 <__umulhisi3>
     a36:	28 ef       	ldi	r18, 0xF8	; 248
     a38:	30 e0       	ldi	r19, 0x00	; 0
     a3a:	40 e0       	ldi	r20, 0x00	; 0
     a3c:	50 e0       	ldi	r21, 0x00	; 0
     a3e:	0e 94 f7 0f 	call	0x1fee	; 0x1fee <__udivmodsi4>

			if(cycles > CALL_CYCLES + RETURN_CYCLES + CALC_CYCLES)
     a42:	23 32       	cpi	r18, 0x23	; 35
     a44:	08 f5       	brcc	.+66     	; 0xa88 <u8x8_avr_delay+0x8e>
				break;

			__asm__ __volatile__ (
     a46:	82 2f       	mov	r24, r18
     a48:	01 97       	sbiw	r24, 0x01	; 1
     a4a:	f1 f7       	brne	.-4      	; 0xa48 <u8x8_avr_delay+0x4e>
		}break;
		
		default:
			return 0;
	}
	return 1;
     a4c:	81 e0       	ldi	r24, 0x01	; 1

			__asm__ __volatile__ (
				"1: sbiw %0,1" "\n\t" // 2 cycles
				"brne 1b" : "=w" (cycles) : "0" (cycles) // 2 cycles
			);
		}break;
     a4e:	08 95       	ret
		
		case U8X8_MSG_DELAY_10MICRO:    // delay arg_int * 10 micro seconds
		{
			for(int i=0 ; i < arg_int ; i++)
     a50:	80 e0       	ldi	r24, 0x00	; 0
     a52:	90 e0       	ldi	r25, 0x00	; 0
	#else
		//round up by default
		__ticks_dc = (uint32_t)(ceil(fabs(__tmp)));
	#endif

	__builtin_avr_delay_cycles(__ticks_dc);
     a54:	25 e3       	ldi	r18, 0x35	; 53
     a56:	2a 95       	dec	r18
     a58:	f1 f7       	brne	.-4      	; 0xa56 <u8x8_avr_delay+0x5c>
     a5a:	00 00       	nop
     a5c:	01 96       	adiw	r24, 0x01	; 1
     a5e:	84 17       	cp	r24, r20
     a60:	95 07       	cpc	r25, r21
     a62:	c1 f7       	brne	.-16     	; 0xa54 <u8x8_avr_delay+0x5a>
		}break;
		
		default:
			return 0;
	}
	return 1;
     a64:	81 e0       	ldi	r24, 0x01	; 1
     a66:	08 95       	ret
				_delay_us(10);
		}break;
		
		case U8X8_MSG_DELAY_MILLI:      // delay arg_int * 1 milli second
		{
			for(int i=0 ; i < arg_int ; i++)
     a68:	80 e0       	ldi	r24, 0x00	; 0
     a6a:	90 e0       	ldi	r25, 0x00	; 0
	#else
		//round up by default
		__ticks_dc = (uint32_t)(ceil(fabs(__tmp)));
	#endif

	__builtin_avr_delay_cycles(__ticks_dc);
     a6c:	ef e9       	ldi	r30, 0x9F	; 159
     a6e:	ff e0       	ldi	r31, 0x0F	; 15
     a70:	31 97       	sbiw	r30, 0x01	; 1
     a72:	f1 f7       	brne	.-4      	; 0xa70 <u8x8_avr_delay+0x76>
     a74:	00 c0       	rjmp	.+0      	; 0xa76 <u8x8_avr_delay+0x7c>
     a76:	00 00       	nop
     a78:	01 96       	adiw	r24, 0x01	; 1
     a7a:	84 17       	cp	r24, r20
     a7c:	95 07       	cpc	r25, r21
     a7e:	b1 f7       	brne	.-20     	; 0xa6c <u8x8_avr_delay+0x72>
		}break;
		
		default:
			return 0;
	}
	return 1;
     a80:	81 e0       	ldi	r24, 0x01	; 1
     a82:	08 95       	ret
			for(int i=0 ; i < arg_int ; i++)
				_delay_ms(1);
		}break;
		
		default:
			return 0;
     a84:	80 e0       	ldi	r24, 0x00	; 0
     a86:	08 95       	ret
	}
	return 1;
     a88:	81 e0       	ldi	r24, 0x01	; 1
}
     a8a:	08 95       	ret

00000a8c <u8x8_avr_gpio_and_delay>:


/* U8g2 function called during OLED setup */
uint8_t u8x8_avr_gpio_and_delay(u8x8_t *u8x8, uint8_t msg, uint8_t arg_int, void *arg_ptr)
{
     a8c:	cf 93       	push	r28
     a8e:	df 93       	push	r29
	// Re-use library for delays

	switch(msg)
     a90:	61 34       	cpi	r22, 0x41	; 65
     a92:	c9 f0       	breq	.+50     	; 0xac6 <u8x8_avr_gpio_and_delay+0x3a>
     a94:	28 f4       	brcc	.+10     	; 0xaa0 <u8x8_avr_gpio_and_delay+0x14>
     a96:	68 32       	cpi	r22, 0x28	; 40
     a98:	51 f0       	breq	.+20     	; 0xaae <u8x8_avr_gpio_and_delay+0x22>
     a9a:	60 34       	cpi	r22, 0x40	; 64
     a9c:	71 f0       	breq	.+28     	; 0xaba <u8x8_avr_gpio_and_delay+0x2e>
     a9e:	2b c0       	rjmp	.+86     	; 0xaf6 <u8x8_avr_gpio_and_delay+0x6a>
     aa0:	6a 34       	cpi	r22, 0x4A	; 74
     aa2:	e9 f0       	breq	.+58     	; 0xade <u8x8_avr_gpio_and_delay+0x52>
     aa4:	6b 34       	cpi	r22, 0x4B	; 75
     aa6:	09 f1       	breq	.+66     	; 0xaea <u8x8_avr_gpio_and_delay+0x5e>
     aa8:	69 34       	cpi	r22, 0x49	; 73
     aaa:	29 f5       	brne	.+74     	; 0xaf6 <u8x8_avr_gpio_and_delay+0x6a>
     aac:	12 c0       	rjmp	.+36     	; 0xad2 <u8x8_avr_gpio_and_delay+0x46>
	{
		case U8X8_MSG_GPIO_AND_DELAY_INIT:  // called once during init phase of u8g2/u8x8
		{
			DISPLAY_CLK_DIR |= 1<<DISPLAY_CLK_PIN;
     aae:	25 9a       	sbi	0x04, 5	; 4
			DISPLAY_DATA_DIR |= 1<<DISPLAY_DATA_PIN;
     ab0:	23 9a       	sbi	0x04, 3	; 4
			DISPLAY_CS_DIR |= 1<<DISPLAY_CS_PIN;
     ab2:	22 9a       	sbi	0x04, 2	; 4
			DISPLAY_DC_DIR |= 1<<DISPLAY_DC_PIN;
     ab4:	21 9a       	sbi	0x04, 1	; 4
			DISPLAY_RESET_DIR |= 1<<DISPLAY_RESET_PIN;
     ab6:	20 9a       	sbi	0x04, 0	; 4
		}break;              // can be used to setup pins
     ab8:	25 c0       	rjmp	.+74     	; 0xb04 <u8x8_avr_gpio_and_delay+0x78>
		
		case U8X8_MSG_GPIO_SPI_CLOCK:        // Clock pin: Output level in arg_int
		{
			if(arg_int)
     aba:	44 23       	and	r20, r20
     abc:	11 f0       	breq	.+4      	; 0xac2 <u8x8_avr_gpio_and_delay+0x36>
				DISPLAY_CLK_PORT |= (1<<DISPLAY_CLK_PIN);
     abe:	2d 9a       	sbi	0x05, 5	; 5
     ac0:	21 c0       	rjmp	.+66     	; 0xb04 <u8x8_avr_gpio_and_delay+0x78>
			else
				DISPLAY_CLK_PORT &= ~(1<<DISPLAY_CLK_PIN);
     ac2:	2d 98       	cbi	0x05, 5	; 5
     ac4:	1f c0       	rjmp	.+62     	; 0xb04 <u8x8_avr_gpio_and_delay+0x78>
		}break;
		
		case U8X8_MSG_GPIO_SPI_DATA:        // MOSI pin: Output level in arg_int
		{
			if(arg_int)
     ac6:	44 23       	and	r20, r20
     ac8:	11 f0       	breq	.+4      	; 0xace <u8x8_avr_gpio_and_delay+0x42>
				DISPLAY_DATA_PORT |= (1<<DISPLAY_DATA_PIN);
     aca:	2b 9a       	sbi	0x05, 3	; 5
     acc:	1b c0       	rjmp	.+54     	; 0xb04 <u8x8_avr_gpio_and_delay+0x78>
			else
				DISPLAY_DATA_PORT &= ~(1<<DISPLAY_DATA_PIN);
     ace:	2b 98       	cbi	0x05, 3	; 5
     ad0:	19 c0       	rjmp	.+50     	; 0xb04 <u8x8_avr_gpio_and_delay+0x78>
		}break;
		
		case U8X8_MSG_GPIO_CS:        // CS (chip select) pin: Output level in arg_int
		{
			if(arg_int)
     ad2:	44 23       	and	r20, r20
     ad4:	11 f0       	breq	.+4      	; 0xada <u8x8_avr_gpio_and_delay+0x4e>
				DISPLAY_CS_PORT |= (1<<DISPLAY_CS_PIN);
     ad6:	2a 9a       	sbi	0x05, 2	; 5
     ad8:	15 c0       	rjmp	.+42     	; 0xb04 <u8x8_avr_gpio_and_delay+0x78>
			else
				DISPLAY_CS_PORT &= ~(1<<DISPLAY_CS_PIN);
     ada:	2a 98       	cbi	0x05, 2	; 5
     adc:	13 c0       	rjmp	.+38     	; 0xb04 <u8x8_avr_gpio_and_delay+0x78>
		}break;
		
		case U8X8_MSG_GPIO_DC:        // DC (data/cmd, A0, register select) pin: Output level in arg_int
		{
			if(arg_int)
     ade:	44 23       	and	r20, r20
     ae0:	11 f0       	breq	.+4      	; 0xae6 <u8x8_avr_gpio_and_delay+0x5a>
			DISPLAY_DC_PORT |= (1<<DISPLAY_DC_PIN);
     ae2:	29 9a       	sbi	0x05, 1	; 5
     ae4:	0f c0       	rjmp	.+30     	; 0xb04 <u8x8_avr_gpio_and_delay+0x78>
			else
			DISPLAY_DC_PORT &= ~(1<<DISPLAY_DC_PIN);
     ae6:	29 98       	cbi	0x05, 1	; 5
     ae8:	0d c0       	rjmp	.+26     	; 0xb04 <u8x8_avr_gpio_and_delay+0x78>
		}break;
		
		case U8X8_MSG_GPIO_RESET:     // Reset pin: Output level in arg_int
		{
			if(arg_int)
     aea:	44 23       	and	r20, r20
     aec:	11 f0       	breq	.+4      	; 0xaf2 <u8x8_avr_gpio_and_delay+0x66>
			DISPLAY_RESET_PORT |= (1<<DISPLAY_RESET_PIN);
     aee:	28 9a       	sbi	0x05, 0	; 5
     af0:	09 c0       	rjmp	.+18     	; 0xb04 <u8x8_avr_gpio_and_delay+0x78>
			else
			DISPLAY_RESET_PORT &= ~(1<<DISPLAY_RESET_PIN);
     af2:	28 98       	cbi	0x05, 0	; 5
     af4:	07 c0       	rjmp	.+14     	; 0xb04 <u8x8_avr_gpio_and_delay+0x78>
     af6:	ec 01       	movw	r28, r24
		}break;
		
		default:
		{
			if (u8x8_avr_delay(u8x8, msg, arg_int, arg_ptr))	// check for any delay msgs
     af8:	0e 94 fd 04 	call	0x9fa	; 0x9fa <u8x8_avr_delay>
     afc:	81 11       	cpse	r24, r1
     afe:	02 c0       	rjmp	.+4      	; 0xb04 <u8x8_avr_gpio_and_delay+0x78>
			return 1;
			u8x8_SetGPIOResult(u8x8, 1);      // default return value
     b00:	81 e0       	ldi	r24, 0x01	; 1
     b02:	8a 8f       	std	Y+26, r24	; 0x1a
		}break;	
	}
	return 1;
}
     b04:	81 e0       	ldi	r24, 0x01	; 1
     b06:	df 91       	pop	r29
     b08:	cf 91       	pop	r28
     b0a:	08 95       	ret

00000b0c <Init_Oled>:

/* Function called to initialize OLED display */
void Init_Oled(u8g2_t *u8g2)
{
     b0c:	cf 93       	push	r28
     b0e:	df 93       	push	r29
     b10:	ec 01       	movw	r28, r24
	u8g2_Setup_ssd1306_128x64_noname_f( u8g2, U8G2_R0, u8x8_byte_4wire_sw_spi, u8x8_avr_gpio_and_delay );
     b12:	26 e4       	ldi	r18, 0x46	; 70
     b14:	35 e0       	ldi	r19, 0x05	; 5
     b16:	4f e0       	ldi	r20, 0x0F	; 15
     b18:	5c e0       	ldi	r21, 0x0C	; 12
     b1a:	60 e2       	ldi	r22, 0x20	; 32
     b1c:	71 e0       	ldi	r23, 0x01	; 1
     b1e:	0e 94 0e 06 	call	0xc1c	; 0xc1c <u8g2_Setup_ssd1306_128x64_noname_f>
	u8g2_InitDisplay(u8g2);
     b22:	ce 01       	movw	r24, r28
     b24:	0e 94 f0 0d 	call	0x1be0	; 0x1be0 <u8x8_InitDisplay>
	u8g2_SetPowerSave(u8g2, 0);
     b28:	60 e0       	ldi	r22, 0x00	; 0
     b2a:	ce 01       	movw	r24, r28
     b2c:	0e 94 fb 0d 	call	0x1bf6	; 0x1bf6 <u8x8_SetPowerSave>
     b30:	df 91       	pop	r29
     b32:	cf 91       	pop	r28
     b34:	08 95       	ret

00000b36 <u8g2_send_buffer>:
  For most displays, this will make the content visible to the user.
  Some displays (like the SSD1606) require a u8x8_RefreshDisplay()
*/
static void u8g2_send_buffer(u8g2_t *u8g2) U8X8_NOINLINE;
static void u8g2_send_buffer(u8g2_t *u8g2)
{
     b36:	af 92       	push	r10
     b38:	bf 92       	push	r11
     b3a:	cf 92       	push	r12
     b3c:	df 92       	push	r13
     b3e:	ef 92       	push	r14
     b40:	ff 92       	push	r15
     b42:	0f 93       	push	r16
     b44:	1f 93       	push	r17
     b46:	cf 93       	push	r28
     b48:	df 93       	push	r29
     b4a:	7c 01       	movw	r14, r24
  uint8_t src_max;
  uint8_t dest_row;
  uint8_t dest_max;

  src_row = 0;
  src_max = u8g2->tile_buf_height;
     b4c:	dc 01       	movw	r26, r24
     b4e:	95 96       	adiw	r26, 0x25	; 37
     b50:	bc 90       	ld	r11, X
     b52:	95 97       	sbiw	r26, 0x25	; 37
  dest_row = u8g2->tile_curr_row;
     b54:	96 96       	adiw	r26, 0x26	; 38
     b56:	dc 91       	ld	r29, X
     b58:	96 97       	sbiw	r26, 0x26	; 38
  dest_max = u8g2_GetU8x8(u8g2)->display_info->tile_height;
     b5a:	ed 91       	ld	r30, X+
     b5c:	fc 91       	ld	r31, X
     b5e:	a1 88       	ldd	r10, Z+17	; 0x11
  uint8_t dest_row;
  uint8_t dest_max;

  src_row = 0;
  src_max = u8g2->tile_buf_height;
  dest_row = u8g2->tile_curr_row;
     b60:	cd 2f       	mov	r28, r29
  dest_max = u8g2_GetU8x8(u8g2)->display_info->tile_height;
     b62:	c1 2c       	mov	r12, r1
     b64:	d1 2c       	mov	r13, r1
{
  uint8_t *ptr;
  uint16_t offset;
  uint8_t w;
  
  w = u8g2_GetU8x8(u8g2)->display_info->tile_width;
     b66:	d7 01       	movw	r26, r14
     b68:	ed 91       	ld	r30, X+
     b6a:	fc 91       	ld	r31, X
     b6c:	11 97       	sbiw	r26, 0x01	; 1
     b6e:	20 89       	ldd	r18, Z+16	; 0x10
  offset = src_tile_row;
  ptr = u8g2->tile_buf_ptr;
     b70:	93 96       	adiw	r26, 0x23	; 35
     b72:	0d 91       	ld	r16, X+
     b74:	1c 91       	ld	r17, X
     b76:	94 97       	sbiw	r26, 0x24	; 36
  offset *= w;
  offset *= 8;
  ptr += offset;
  u8x8_DrawTile(u8g2_GetU8x8(u8g2), 0, dest_tile_row, w, ptr);
     b78:	42 2f       	mov	r20, r18
     b7a:	50 e0       	ldi	r21, 0x00	; 0
     b7c:	44 0f       	add	r20, r20
     b7e:	55 1f       	adc	r21, r21
     b80:	44 0f       	add	r20, r20
     b82:	55 1f       	adc	r21, r21
     b84:	44 0f       	add	r20, r20
     b86:	55 1f       	adc	r21, r21
     b88:	4c 9d       	mul	r20, r12
     b8a:	c0 01       	movw	r24, r0
     b8c:	4d 9d       	mul	r20, r13
     b8e:	90 0d       	add	r25, r0
     b90:	5c 9d       	mul	r21, r12
     b92:	90 0d       	add	r25, r0
     b94:	11 24       	eor	r1, r1
     b96:	08 0f       	add	r16, r24
     b98:	19 1f       	adc	r17, r25
     b9a:	4c 2f       	mov	r20, r28
     b9c:	60 e0       	ldi	r22, 0x00	; 0
     b9e:	c7 01       	movw	r24, r14
     ba0:	0e 94 c2 0d 	call	0x1b84	; 0x1b84 <u8x8_DrawTile>
  
  do
  {
    u8g2_send_tile_row(u8g2, src_row, dest_row);
    src_row++;
    dest_row++;
     ba4:	cf 5f       	subi	r28, 0xFF	; 255
  } while( src_row < src_max && dest_row < dest_max );
     ba6:	8c 2f       	mov	r24, r28
     ba8:	8d 1b       	sub	r24, r29
     baa:	8b 15       	cp	r24, r11
     bac:	28 f4       	brcc	.+10     	; 0xbb8 <u8g2_send_buffer+0x82>
     bae:	bf ef       	ldi	r27, 0xFF	; 255
     bb0:	cb 1a       	sub	r12, r27
     bb2:	db 0a       	sbc	r13, r27
     bb4:	ca 15       	cp	r28, r10
     bb6:	b8 f2       	brcs	.-82     	; 0xb66 <u8g2_send_buffer+0x30>
}
     bb8:	df 91       	pop	r29
     bba:	cf 91       	pop	r28
     bbc:	1f 91       	pop	r17
     bbe:	0f 91       	pop	r16
     bc0:	ff 90       	pop	r15
     bc2:	ef 90       	pop	r14
     bc4:	df 90       	pop	r13
     bc6:	cf 90       	pop	r12
     bc8:	bf 90       	pop	r11
     bca:	af 90       	pop	r10
     bcc:	08 95       	ret

00000bce <u8g2_ClearBuffer>:
#include "u8g2.h"
#include <string.h>

/*============================================*/
void u8g2_ClearBuffer(u8g2_t *u8g2)
{
     bce:	fc 01       	movw	r30, r24
  size_t cnt;
  cnt = u8g2_GetU8x8(u8g2)->display_info->tile_width;
     bd0:	a0 81       	ld	r26, Z
     bd2:	b1 81       	ldd	r27, Z+1	; 0x01
     bd4:	50 96       	adiw	r26, 0x10	; 16
     bd6:	9c 91       	ld	r25, X
  cnt *= u8g2->tile_buf_height;
     bd8:	45 a1       	ldd	r20, Z+37	; 0x25
     bda:	94 9f       	mul	r25, r20
     bdc:	a0 01       	movw	r20, r0
     bde:	11 24       	eor	r1, r1
  cnt *= 8;
  memset(u8g2->tile_buf_ptr, 0, cnt);
     be0:	44 0f       	add	r20, r20
     be2:	55 1f       	adc	r21, r21
     be4:	44 0f       	add	r20, r20
     be6:	55 1f       	adc	r21, r21
     be8:	44 0f       	add	r20, r20
     bea:	55 1f       	adc	r21, r21
     bec:	60 e0       	ldi	r22, 0x00	; 0
     bee:	70 e0       	ldi	r23, 0x00	; 0
     bf0:	83 a1       	ldd	r24, Z+35	; 0x23
     bf2:	94 a1       	ldd	r25, Z+36	; 0x24
     bf4:	0e 94 28 10 	call	0x2050	; 0x2050 <memset>
     bf8:	08 95       	ret

00000bfa <u8g2_SendBuffer>:
  } while( src_row < src_max && dest_row < dest_max );
}

/* same as u8g2_send_buffer but also send the DISPLAY_REFRESH message (used by SSD1606) */
void u8g2_SendBuffer(u8g2_t *u8g2)
{
     bfa:	cf 93       	push	r28
     bfc:	df 93       	push	r29
     bfe:	ec 01       	movw	r28, r24
  u8g2_send_buffer(u8g2);
     c00:	0e 94 9b 05 	call	0xb36	; 0xb36 <u8g2_send_buffer>
  u8x8_RefreshDisplay( u8g2_GetU8x8(u8g2) );  
     c04:	ce 01       	movw	r24, r28
     c06:	0e 94 06 0e 	call	0x1c0c	; 0x1c0c <u8x8_RefreshDisplay>
}
     c0a:	df 91       	pop	r29
     c0c:	cf 91       	pop	r28
     c0e:	08 95       	ret

00000c10 <u8g2_m_16_8_f>:
  #ifdef U8G2_USE_DYNAMIC_ALLOC
  *page_cnt = 8;
  return 0;
  #else
  static uint8_t buf[1024];
  *page_cnt = 8;
     c10:	28 e0       	ldi	r18, 0x08	; 8
     c12:	fc 01       	movw	r30, r24
     c14:	20 83       	st	Z, r18
  return buf;
  #endif
}
     c16:	8c e8       	ldi	r24, 0x8C	; 140
     c18:	91 e0       	ldi	r25, 0x01	; 1
     c1a:	08 95       	ret

00000c1c <u8g2_Setup_ssd1306_128x64_noname_f>:
  buf = u8g2_m_16_8_2(&tile_buf_height);
  u8g2_SetupBuffer(u8g2, buf, tile_buf_height, u8g2_ll_hvline_vertical_top_lsb, rotation);
}
/* ssd1306 f */
void u8g2_Setup_ssd1306_128x64_noname_f(u8g2_t *u8g2, const u8g2_cb_t *rotation, u8x8_msg_cb byte_cb, u8x8_msg_cb gpio_and_delay_cb)
{
     c1c:	cf 92       	push	r12
     c1e:	df 92       	push	r13
     c20:	ef 92       	push	r14
     c22:	ff 92       	push	r15
     c24:	0f 93       	push	r16
     c26:	1f 93       	push	r17
     c28:	cf 93       	push	r28
     c2a:	df 93       	push	r29
     c2c:	1f 92       	push	r1
     c2e:	cd b7       	in	r28, 0x3d	; 61
     c30:	de b7       	in	r29, 0x3e	; 62
     c32:	7c 01       	movw	r14, r24
     c34:	6b 01       	movw	r12, r22
  uint8_t tile_buf_height;
  uint8_t *buf;
  u8g2_SetupDisplay(u8g2, u8x8_d_ssd1306_128x64_noname, u8x8_cad_001, byte_cb, gpio_and_delay_cb);
     c36:	89 01       	movw	r16, r18
     c38:	9a 01       	movw	r18, r20
     c3a:	42 e4       	ldi	r20, 0x42	; 66
     c3c:	5d e0       	ldi	r21, 0x0D	; 13
     c3e:	6a e9       	ldi	r22, 0x9A	; 154
     c40:	7e e0       	ldi	r23, 0x0E	; 14
     c42:	0e 94 e0 0e 	call	0x1dc0	; 0x1dc0 <u8x8_Setup>
  buf = u8g2_m_16_8_f(&tile_buf_height);
     c46:	ce 01       	movw	r24, r28
     c48:	01 96       	adiw	r24, 0x01	; 1
     c4a:	0e 94 08 06 	call	0xc10	; 0xc10 <u8g2_m_16_8_f>
  u8g2_SetupBuffer(u8g2, buf, tile_buf_height, u8g2_ll_hvline_vertical_top_lsb, rotation);
     c4e:	86 01       	movw	r16, r12
     c50:	26 eb       	ldi	r18, 0xB6	; 182
     c52:	3a e0       	ldi	r19, 0x0A	; 10
     c54:	49 81       	ldd	r20, Y+1	; 0x01
     c56:	bc 01       	movw	r22, r24
     c58:	c7 01       	movw	r24, r14
     c5a:	0e 94 ad 0b 	call	0x175a	; 0x175a <u8g2_SetupBuffer>
}
     c5e:	0f 90       	pop	r0
     c60:	df 91       	pop	r29
     c62:	cf 91       	pop	r28
     c64:	1f 91       	pop	r17
     c66:	0f 91       	pop	r16
     c68:	ff 90       	pop	r15
     c6a:	ef 90       	pop	r14
     c6c:	df 90       	pop	r13
     c6e:	cf 90       	pop	r12
     c70:	08 95       	ret

00000c72 <u8g2_font_get_word>:
  return tmp;
}

void u8g2_SetFontPosCenter(u8g2_t *u8g2)
{
  u8g2->font_calc_vref = u8g2_font_calc_vref_center;
     c72:	fc 01       	movw	r30, r24
     c74:	e6 0f       	add	r30, r22
     c76:	f1 1d       	adc	r31, r1
     c78:	84 91       	lpm	r24, Z
     c7a:	90 e0       	ldi	r25, 0x00	; 0
     c7c:	98 2f       	mov	r25, r24
     c7e:	88 27       	eor	r24, r24
     c80:	31 96       	adiw	r30, 0x01	; 1
     c82:	e4 91       	lpm	r30, Z
     c84:	8e 0f       	add	r24, r30
     c86:	91 1d       	adc	r25, r1
     c88:	08 95       	ret

00000c8a <u8g2_add_vector_y>:
     c8a:	21 30       	cpi	r18, 0x01	; 1
     c8c:	31 f0       	breq	.+12     	; 0xc9a <u8g2_add_vector_y+0x10>
     c8e:	18 f0       	brcs	.+6      	; 0xc96 <u8g2_add_vector_y+0xc>
     c90:	22 30       	cpi	r18, 0x02	; 2
     c92:	29 f0       	breq	.+10     	; 0xc9e <u8g2_add_vector_y+0x14>
     c94:	06 c0       	rjmp	.+12     	; 0xca2 <u8g2_add_vector_y+0x18>
     c96:	84 0f       	add	r24, r20
     c98:	08 95       	ret
     c9a:	86 0f       	add	r24, r22
     c9c:	08 95       	ret
     c9e:	84 1b       	sub	r24, r20
     ca0:	08 95       	ret
     ca2:	86 1b       	sub	r24, r22
     ca4:	08 95       	ret

00000ca6 <u8g2_add_vector_x>:
     ca6:	21 30       	cpi	r18, 0x01	; 1
     ca8:	31 f0       	breq	.+12     	; 0xcb6 <u8g2_add_vector_x+0x10>
     caa:	18 f0       	brcs	.+6      	; 0xcb2 <u8g2_add_vector_x+0xc>
     cac:	22 30       	cpi	r18, 0x02	; 2
     cae:	29 f0       	breq	.+10     	; 0xcba <u8g2_add_vector_x+0x14>
     cb0:	06 c0       	rjmp	.+12     	; 0xcbe <u8g2_add_vector_x+0x18>
     cb2:	86 0f       	add	r24, r22
     cb4:	08 95       	ret
     cb6:	84 1b       	sub	r24, r20
     cb8:	08 95       	ret
     cba:	86 1b       	sub	r24, r22
     cbc:	08 95       	ret
     cbe:	84 0f       	add	r24, r20
     cc0:	08 95       	ret

00000cc2 <u8g2_font_calc_vref_font>:
     cc2:	80 e0       	ldi	r24, 0x00	; 0
     cc4:	08 95       	ret

00000cc6 <u8g2_read_font_info>:
     cc6:	0f 93       	push	r16
     cc8:	1f 93       	push	r17
     cca:	cf 93       	push	r28
     ccc:	df 93       	push	r29
     cce:	ec 01       	movw	r28, r24
     cd0:	8b 01       	movw	r16, r22
     cd2:	fb 01       	movw	r30, r22
     cd4:	84 91       	lpm	r24, Z
     cd6:	88 83       	st	Y, r24
     cd8:	31 96       	adiw	r30, 0x01	; 1
     cda:	e4 91       	lpm	r30, Z
     cdc:	e9 83       	std	Y+1, r30	; 0x01
     cde:	fb 01       	movw	r30, r22
     ce0:	32 96       	adiw	r30, 0x02	; 2
     ce2:	e4 91       	lpm	r30, Z
     ce4:	ea 83       	std	Y+2, r30	; 0x02
     ce6:	fb 01       	movw	r30, r22
     ce8:	33 96       	adiw	r30, 0x03	; 3
     cea:	e4 91       	lpm	r30, Z
     cec:	eb 83       	std	Y+3, r30	; 0x03
     cee:	fb 01       	movw	r30, r22
     cf0:	34 96       	adiw	r30, 0x04	; 4
     cf2:	e4 91       	lpm	r30, Z
     cf4:	ec 83       	std	Y+4, r30	; 0x04
     cf6:	fb 01       	movw	r30, r22
     cf8:	35 96       	adiw	r30, 0x05	; 5
     cfa:	e4 91       	lpm	r30, Z
     cfc:	ed 83       	std	Y+5, r30	; 0x05
     cfe:	fb 01       	movw	r30, r22
     d00:	36 96       	adiw	r30, 0x06	; 6
     d02:	e4 91       	lpm	r30, Z
     d04:	ee 83       	std	Y+6, r30	; 0x06
     d06:	fb 01       	movw	r30, r22
     d08:	37 96       	adiw	r30, 0x07	; 7
     d0a:	e4 91       	lpm	r30, Z
     d0c:	ef 83       	std	Y+7, r30	; 0x07
     d0e:	fb 01       	movw	r30, r22
     d10:	38 96       	adiw	r30, 0x08	; 8
     d12:	e4 91       	lpm	r30, Z
     d14:	e8 87       	std	Y+8, r30	; 0x08
     d16:	fb 01       	movw	r30, r22
     d18:	39 96       	adiw	r30, 0x09	; 9
     d1a:	e4 91       	lpm	r30, Z
     d1c:	e9 87       	std	Y+9, r30	; 0x09
     d1e:	fb 01       	movw	r30, r22
     d20:	3a 96       	adiw	r30, 0x0a	; 10
     d22:	e4 91       	lpm	r30, Z
     d24:	ea 87       	std	Y+10, r30	; 0x0a
     d26:	fb 01       	movw	r30, r22
     d28:	3b 96       	adiw	r30, 0x0b	; 11
     d2a:	e4 91       	lpm	r30, Z
     d2c:	eb 87       	std	Y+11, r30	; 0x0b
     d2e:	fb 01       	movw	r30, r22
     d30:	3c 96       	adiw	r30, 0x0c	; 12
     d32:	e4 91       	lpm	r30, Z
     d34:	ec 87       	std	Y+12, r30	; 0x0c
     d36:	fb 01       	movw	r30, r22
     d38:	3d 96       	adiw	r30, 0x0d	; 13
     d3a:	e4 91       	lpm	r30, Z
     d3c:	ed 87       	std	Y+13, r30	; 0x0d
     d3e:	fb 01       	movw	r30, r22
     d40:	3e 96       	adiw	r30, 0x0e	; 14
     d42:	e4 91       	lpm	r30, Z
     d44:	ee 87       	std	Y+14, r30	; 0x0e
     d46:	fb 01       	movw	r30, r22
     d48:	3f 96       	adiw	r30, 0x0f	; 15
     d4a:	e4 91       	lpm	r30, Z
     d4c:	ef 87       	std	Y+15, r30	; 0x0f
     d4e:	fb 01       	movw	r30, r22
     d50:	70 96       	adiw	r30, 0x10	; 16
     d52:	e4 91       	lpm	r30, Z
     d54:	e8 8b       	std	Y+16, r30	; 0x10
     d56:	61 e1       	ldi	r22, 0x11	; 17
     d58:	c8 01       	movw	r24, r16
     d5a:	0e 94 39 06 	call	0xc72	; 0xc72 <u8g2_font_get_word>
     d5e:	9a 8b       	std	Y+18, r25	; 0x12
     d60:	89 8b       	std	Y+17, r24	; 0x11
     d62:	63 e1       	ldi	r22, 0x13	; 19
     d64:	c8 01       	movw	r24, r16
     d66:	0e 94 39 06 	call	0xc72	; 0xc72 <u8g2_font_get_word>
     d6a:	9c 8b       	std	Y+20, r25	; 0x14
     d6c:	8b 8b       	std	Y+19, r24	; 0x13
     d6e:	65 e1       	ldi	r22, 0x15	; 21
     d70:	c8 01       	movw	r24, r16
     d72:	0e 94 39 06 	call	0xc72	; 0xc72 <u8g2_font_get_word>
     d76:	9e 8b       	std	Y+22, r25	; 0x16
     d78:	8d 8b       	std	Y+21, r24	; 0x15
     d7a:	df 91       	pop	r29
     d7c:	cf 91       	pop	r28
     d7e:	1f 91       	pop	r17
     d80:	0f 91       	pop	r16
     d82:	08 95       	ret

00000d84 <u8g2_font_decode_get_unsigned_bits>:
     d84:	dc 01       	movw	r26, r24
     d86:	18 96       	adiw	r26, 0x08	; 8
     d88:	9c 91       	ld	r25, X
     d8a:	18 97       	sbiw	r26, 0x08	; 8
     d8c:	ed 91       	ld	r30, X+
     d8e:	fc 91       	ld	r31, X
     d90:	11 97       	sbiw	r26, 0x01	; 1
     d92:	24 91       	lpm	r18, Z
     d94:	30 e0       	ldi	r19, 0x00	; 0
     d96:	09 2e       	mov	r0, r25
     d98:	02 c0       	rjmp	.+4      	; 0xd9e <u8g2_font_decode_get_unsigned_bits+0x1a>
     d9a:	35 95       	asr	r19
     d9c:	27 95       	ror	r18
     d9e:	0a 94       	dec	r0
     da0:	e2 f7       	brpl	.-8      	; 0xd9a <u8g2_font_decode_get_unsigned_bits+0x16>
     da2:	89 2f       	mov	r24, r25
     da4:	86 0f       	add	r24, r22
     da6:	88 30       	cpi	r24, 0x08	; 8
     da8:	10 f4       	brcc	.+4      	; 0xdae <u8g2_font_decode_get_unsigned_bits+0x2a>
     daa:	e2 2f       	mov	r30, r18
     dac:	0f c0       	rjmp	.+30     	; 0xdcc <u8g2_font_decode_get_unsigned_bits+0x48>
     dae:	31 96       	adiw	r30, 0x01	; 1
     db0:	11 96       	adiw	r26, 0x01	; 1
     db2:	fc 93       	st	X, r31
     db4:	ee 93       	st	-X, r30
     db6:	e4 91       	lpm	r30, Z
     db8:	f0 e0       	ldi	r31, 0x00	; 0
     dba:	38 e0       	ldi	r19, 0x08	; 8
     dbc:	39 1b       	sub	r19, r25
     dbe:	02 c0       	rjmp	.+4      	; 0xdc4 <u8g2_font_decode_get_unsigned_bits+0x40>
     dc0:	ee 0f       	add	r30, r30
     dc2:	ff 1f       	adc	r31, r31
     dc4:	3a 95       	dec	r19
     dc6:	e2 f7       	brpl	.-8      	; 0xdc0 <u8g2_font_decode_get_unsigned_bits+0x3c>
     dc8:	e2 2b       	or	r30, r18
     dca:	88 50       	subi	r24, 0x08	; 8
     dcc:	18 96       	adiw	r26, 0x08	; 8
     dce:	8c 93       	st	X, r24
     dd0:	81 e0       	ldi	r24, 0x01	; 1
     dd2:	90 e0       	ldi	r25, 0x00	; 0
     dd4:	02 c0       	rjmp	.+4      	; 0xdda <u8g2_font_decode_get_unsigned_bits+0x56>
     dd6:	88 0f       	add	r24, r24
     dd8:	99 1f       	adc	r25, r25
     dda:	6a 95       	dec	r22
     ddc:	e2 f7       	brpl	.-8      	; 0xdd6 <u8g2_font_decode_get_unsigned_bits+0x52>
     dde:	81 50       	subi	r24, 0x01	; 1
     de0:	8e 23       	and	r24, r30
     de2:	08 95       	ret

00000de4 <u8g2_font_setup_decode>:
     de4:	0f 93       	push	r16
     de6:	1f 93       	push	r17
     de8:	cf 93       	push	r28
     dea:	df 93       	push	r29
     dec:	ec 01       	movw	r28, r24
     dee:	8c 01       	movw	r16, r24
     df0:	06 5c       	subi	r16, 0xC6	; 198
     df2:	1f 4f       	sbci	r17, 0xFF	; 255
     df4:	7b af       	std	Y+59, r23	; 0x3b
     df6:	6a af       	std	Y+58, r22	; 0x3a
     df8:	fc 01       	movw	r30, r24
     dfa:	ee 5b       	subi	r30, 0xBE	; 190
     dfc:	ff 4f       	sbci	r31, 0xFF	; 255
     dfe:	10 82       	st	Z, r1
     e00:	39 96       	adiw	r30, 0x09	; 9
     e02:	60 81       	ld	r22, Z
     e04:	c8 01       	movw	r24, r16
     e06:	0e 94 c2 06 	call	0xd84	; 0xd84 <u8g2_font_decode_get_unsigned_bits>
     e0a:	fe 01       	movw	r30, r28
     e0c:	e0 5c       	subi	r30, 0xC0	; 192
     e0e:	ff 4f       	sbci	r31, 0xFF	; 255
     e10:	80 83       	st	Z, r24
     e12:	3c 96       	adiw	r30, 0x0c	; 12
     e14:	60 81       	ld	r22, Z
     e16:	c8 01       	movw	r24, r16
     e18:	0e 94 c2 06 	call	0xd84	; 0xd84 <u8g2_font_decode_get_unsigned_bits>
     e1c:	fe 01       	movw	r30, r28
     e1e:	ef 5b       	subi	r30, 0xBF	; 191
     e20:	ff 4f       	sbci	r31, 0xFF	; 255
     e22:	80 83       	st	Z, r24
     e24:	b3 96       	adiw	r30, 0x23	; 35
     e26:	80 81       	ld	r24, Z
     e28:	b0 97       	sbiw	r30, 0x20	; 32
     e2a:	80 83       	st	Z, r24
     e2c:	cb 5b       	subi	r28, 0xBB	; 187
     e2e:	df 4f       	sbci	r29, 0xFF	; 255
     e30:	91 e0       	ldi	r25, 0x01	; 1
     e32:	81 11       	cpse	r24, r1
     e34:	90 e0       	ldi	r25, 0x00	; 0
     e36:	98 83       	st	Y, r25
     e38:	df 91       	pop	r29
     e3a:	cf 91       	pop	r28
     e3c:	1f 91       	pop	r17
     e3e:	0f 91       	pop	r16
     e40:	08 95       	ret

00000e42 <u8g2_font_decode_get_signed_bits>:
     e42:	cf 93       	push	r28
     e44:	c6 2f       	mov	r28, r22
     e46:	0e 94 c2 06 	call	0xd84	; 0xd84 <u8g2_font_decode_get_unsigned_bits>
     e4a:	c1 50       	subi	r28, 0x01	; 1
     e4c:	21 e0       	ldi	r18, 0x01	; 1
     e4e:	30 e0       	ldi	r19, 0x00	; 0
     e50:	02 c0       	rjmp	.+4      	; 0xe56 <u8g2_font_decode_get_signed_bits+0x14>
     e52:	22 0f       	add	r18, r18
     e54:	33 1f       	adc	r19, r19
     e56:	ca 95       	dec	r28
     e58:	e2 f7       	brpl	.-8      	; 0xe52 <u8g2_font_decode_get_signed_bits+0x10>
     e5a:	82 1b       	sub	r24, r18
     e5c:	cf 91       	pop	r28
     e5e:	08 95       	ret

00000e60 <u8g2_font_decode_len>:
     e60:	2f 92       	push	r2
     e62:	3f 92       	push	r3
     e64:	4f 92       	push	r4
     e66:	5f 92       	push	r5
     e68:	6f 92       	push	r6
     e6a:	7f 92       	push	r7
     e6c:	8f 92       	push	r8
     e6e:	9f 92       	push	r9
     e70:	af 92       	push	r10
     e72:	bf 92       	push	r11
     e74:	cf 92       	push	r12
     e76:	df 92       	push	r13
     e78:	ef 92       	push	r14
     e7a:	ff 92       	push	r15
     e7c:	0f 93       	push	r16
     e7e:	1f 93       	push	r17
     e80:	cf 93       	push	r28
     e82:	df 93       	push	r29
     e84:	cd b7       	in	r28, 0x3d	; 61
     e86:	de b7       	in	r29, 0x3e	; 62
     e88:	28 97       	sbiw	r28, 0x08	; 8
     e8a:	0f b6       	in	r0, 0x3f	; 63
     e8c:	f8 94       	cli
     e8e:	de bf       	out	0x3e, r29	; 62
     e90:	0f be       	out	0x3f, r0	; 63
     e92:	cd bf       	out	0x3d, r28	; 61
     e94:	7c 01       	movw	r14, r24
     e96:	68 87       	std	Y+8, r22	; 0x08
     e98:	34 2e       	mov	r3, r20
     e9a:	fc 01       	movw	r30, r24
     e9c:	76 ac       	ldd	r7, Z+62	; 0x3e
     e9e:	17 ad       	ldd	r17, Z+63	; 0x3f
     ea0:	5c 01       	movw	r10, r24
     ea2:	f0 e4       	ldi	r31, 0x40	; 64
     ea4:	af 0e       	add	r10, r31
     ea6:	b1 1c       	adc	r11, r1
     ea8:	6c 01       	movw	r12, r24
     eaa:	86 e4       	ldi	r24, 0x46	; 70
     eac:	c8 0e       	add	r12, r24
     eae:	d1 1c       	adc	r13, r1
     eb0:	47 01       	movw	r8, r14
     eb2:	93 e4       	ldi	r25, 0x43	; 67
     eb4:	89 0e       	add	r8, r25
     eb6:	91 1c       	adc	r9, r1
     eb8:	f7 01       	movw	r30, r14
     eba:	ec 59       	subi	r30, 0x9C	; 156
     ebc:	ff 4f       	sbci	r31, 0xFF	; 255
     ebe:	fa 83       	std	Y+2, r31	; 0x02
     ec0:	e9 83       	std	Y+1, r30	; 0x01
     ec2:	c7 01       	movw	r24, r14
     ec4:	8b 5b       	subi	r24, 0xBB	; 187
     ec6:	9f 4f       	sbci	r25, 0xFF	; 255
     ec8:	9e 83       	std	Y+6, r25	; 0x06
     eca:	8d 83       	std	Y+5, r24	; 0x05
     ecc:	b0 97       	sbiw	r30, 0x20	; 32
     ece:	fc 83       	std	Y+4, r31	; 0x04
     ed0:	eb 83       	std	Y+3, r30	; 0x03
     ed2:	f5 01       	movw	r30, r10
     ed4:	f0 81       	ld	r31, Z
     ed6:	f7 19       	sub	r31, r7
     ed8:	ff 83       	std	Y+7, r31	; 0x07
     eda:	58 84       	ldd	r5, Y+8	; 0x08
     edc:	f5 15       	cp	r31, r5
     ede:	08 f4       	brcc	.+2      	; 0xee2 <u8g2_font_decode_len+0x82>
     ee0:	5f 2e       	mov	r5, r31
     ee2:	f7 01       	movw	r30, r14
     ee4:	65 ac       	ldd	r6, Z+61	; 0x3d
     ee6:	f6 01       	movw	r30, r12
     ee8:	00 81       	ld	r16, Z
     eea:	21 2e       	mov	r2, r17
     eec:	20 2f       	mov	r18, r16
     eee:	41 2f       	mov	r20, r17
     ef0:	67 2d       	mov	r22, r7
     ef2:	f7 01       	movw	r30, r14
     ef4:	84 ad       	ldd	r24, Z+60	; 0x3c
     ef6:	0e 94 53 06 	call	0xca6	; 0xca6 <u8g2_add_vector_x>
     efa:	48 2e       	mov	r4, r24
     efc:	20 2f       	mov	r18, r16
     efe:	41 2f       	mov	r20, r17
     f00:	67 2d       	mov	r22, r7
     f02:	86 2d       	mov	r24, r6
     f04:	0e 94 45 06 	call	0xc8a	; 0xc8a <u8g2_add_vector_y>
     f08:	33 20       	and	r3, r3
     f0a:	69 f0       	breq	.+26     	; 0xf26 <u8g2_font_decode_len+0xc6>
     f0c:	eb 81       	ldd	r30, Y+3	; 0x03
     f0e:	fc 81       	ldd	r31, Y+4	; 0x04
     f10:	90 81       	ld	r25, Z
     f12:	e9 81       	ldd	r30, Y+1	; 0x01
     f14:	fa 81       	ldd	r31, Y+2	; 0x02
     f16:	90 83       	st	Z, r25
     f18:	25 2d       	mov	r18, r5
     f1a:	48 2f       	mov	r20, r24
     f1c:	64 2d       	mov	r22, r4
     f1e:	c7 01       	movw	r24, r14
     f20:	0e 94 18 0a 	call	0x1430	; 0x1430 <u8g2_DrawHVLine>
     f24:	10 c0       	rjmp	.+32     	; 0xf46 <u8g2_font_decode_len+0xe6>
     f26:	f4 01       	movw	r30, r8
     f28:	90 81       	ld	r25, Z
     f2a:	91 11       	cpse	r25, r1
     f2c:	0c c0       	rjmp	.+24     	; 0xf46 <u8g2_font_decode_len+0xe6>
     f2e:	ed 81       	ldd	r30, Y+5	; 0x05
     f30:	fe 81       	ldd	r31, Y+6	; 0x06
     f32:	90 81       	ld	r25, Z
     f34:	e9 81       	ldd	r30, Y+1	; 0x01
     f36:	fa 81       	ldd	r31, Y+2	; 0x02
     f38:	90 83       	st	Z, r25
     f3a:	25 2d       	mov	r18, r5
     f3c:	48 2f       	mov	r20, r24
     f3e:	64 2d       	mov	r22, r4
     f40:	c7 01       	movw	r24, r14
     f42:	0e 94 18 0a 	call	0x1430	; 0x1430 <u8g2_DrawHVLine>
     f46:	f8 85       	ldd	r31, Y+8	; 0x08
     f48:	8f 81       	ldd	r24, Y+7	; 0x07
     f4a:	f8 17       	cp	r31, r24
     f4c:	28 f0       	brcs	.+10     	; 0xf58 <u8g2_font_decode_len+0xf8>
     f4e:	f8 1b       	sub	r31, r24
     f50:	f8 87       	std	Y+8, r31	; 0x08
     f52:	1f 5f       	subi	r17, 0xFF	; 255
     f54:	71 2c       	mov	r7, r1
     f56:	bd cf       	rjmp	.-134    	; 0xed2 <u8g2_font_decode_len+0x72>
     f58:	88 85       	ldd	r24, Y+8	; 0x08
     f5a:	87 0d       	add	r24, r7
     f5c:	f7 01       	movw	r30, r14
     f5e:	86 af       	std	Z+62, r24	; 0x3e
     f60:	27 ae       	std	Z+63, r2	; 0x3f
     f62:	28 96       	adiw	r28, 0x08	; 8
     f64:	0f b6       	in	r0, 0x3f	; 63
     f66:	f8 94       	cli
     f68:	de bf       	out	0x3e, r29	; 62
     f6a:	0f be       	out	0x3f, r0	; 63
     f6c:	cd bf       	out	0x3d, r28	; 61
     f6e:	df 91       	pop	r29
     f70:	cf 91       	pop	r28
     f72:	1f 91       	pop	r17
     f74:	0f 91       	pop	r16
     f76:	ff 90       	pop	r15
     f78:	ef 90       	pop	r14
     f7a:	df 90       	pop	r13
     f7c:	cf 90       	pop	r12
     f7e:	bf 90       	pop	r11
     f80:	af 90       	pop	r10
     f82:	9f 90       	pop	r9
     f84:	8f 90       	pop	r8
     f86:	7f 90       	pop	r7
     f88:	6f 90       	pop	r6
     f8a:	5f 90       	pop	r5
     f8c:	4f 90       	pop	r4
     f8e:	3f 90       	pop	r3
     f90:	2f 90       	pop	r2
     f92:	08 95       	ret

00000f94 <u8g2_font_decode_glyph>:
     f94:	8f 92       	push	r8
     f96:	9f 92       	push	r9
     f98:	af 92       	push	r10
     f9a:	bf 92       	push	r11
     f9c:	cf 92       	push	r12
     f9e:	df 92       	push	r13
     fa0:	ef 92       	push	r14
     fa2:	ff 92       	push	r15
     fa4:	0f 93       	push	r16
     fa6:	1f 93       	push	r17
     fa8:	cf 93       	push	r28
     faa:	df 93       	push	r29
     fac:	ec 01       	movw	r28, r24
     fae:	7c 01       	movw	r14, r24
     fb0:	8a e3       	ldi	r24, 0x3A	; 58
     fb2:	e8 0e       	add	r14, r24
     fb4:	f1 1c       	adc	r15, r1
     fb6:	ce 01       	movw	r24, r28
     fb8:	0e 94 f2 06 	call	0xde4	; 0xde4 <u8g2_font_setup_decode>
     fbc:	fe 01       	movw	r30, r28
     fbe:	ef 5b       	subi	r30, 0xBF	; 191
     fc0:	ff 4f       	sbci	r31, 0xFF	; 255
     fc2:	90 80       	ld	r9, Z
     fc4:	3c 96       	adiw	r30, 0x0c	; 12
     fc6:	60 81       	ld	r22, Z
     fc8:	c7 01       	movw	r24, r14
     fca:	0e 94 21 07 	call	0xe42	; 0xe42 <u8g2_font_decode_get_signed_bits>
     fce:	b8 2e       	mov	r11, r24
     fd0:	fe 01       	movw	r30, r28
     fd2:	e2 5b       	subi	r30, 0xB2	; 178
     fd4:	ff 4f       	sbci	r31, 0xFF	; 255
     fd6:	60 81       	ld	r22, Z
     fd8:	c7 01       	movw	r24, r14
     fda:	0e 94 21 07 	call	0xe42	; 0xe42 <u8g2_font_decode_get_signed_bits>
     fde:	18 2f       	mov	r17, r24
     fe0:	fe 01       	movw	r30, r28
     fe2:	e1 5b       	subi	r30, 0xB1	; 177
     fe4:	ff 4f       	sbci	r31, 0xFF	; 255
     fe6:	60 81       	ld	r22, Z
     fe8:	c7 01       	movw	r24, r14
     fea:	0e 94 21 07 	call	0xe42	; 0xe42 <u8g2_font_decode_get_signed_bits>
     fee:	88 2e       	mov	r8, r24
     ff0:	fe 01       	movw	r30, r28
     ff2:	e0 5c       	subi	r30, 0xC0	; 192
     ff4:	ff 4f       	sbci	r31, 0xFF	; 255
     ff6:	d0 80       	ld	r13, Z
     ff8:	1d 14       	cp	r1, r13
     ffa:	0c f0       	brlt	.+2      	; 0xffe <u8g2_font_decode_glyph+0x6a>
     ffc:	77 c0       	rjmp	.+238    	; 0x10ec <u8g2_font_decode_glyph+0x158>
     ffe:	36 96       	adiw	r30, 0x06	; 6
    1000:	00 81       	ld	r16, Z
    1002:	19 0d       	add	r17, r9
    1004:	11 95       	neg	r17
    1006:	20 2f       	mov	r18, r16
    1008:	41 2f       	mov	r20, r17
    100a:	6b 2d       	mov	r22, r11
    100c:	8c ad       	ldd	r24, Y+60	; 0x3c
    100e:	0e 94 53 06 	call	0xca6	; 0xca6 <u8g2_add_vector_x>
    1012:	c8 2e       	mov	r12, r24
    1014:	8c af       	std	Y+60, r24	; 0x3c
    1016:	20 2f       	mov	r18, r16
    1018:	41 2f       	mov	r20, r17
    101a:	6b 2d       	mov	r22, r11
    101c:	8d ad       	ldd	r24, Y+61	; 0x3d
    101e:	0e 94 45 06 	call	0xc8a	; 0xc8a <u8g2_add_vector_y>
    1022:	8d af       	std	Y+61, r24	; 0x3d
    1024:	01 30       	cpi	r16, 0x01	; 1
    1026:	59 f0       	breq	.+22     	; 0x103e <u8g2_font_decode_glyph+0xaa>
    1028:	28 f0       	brcs	.+10     	; 0x1034 <u8g2_font_decode_glyph+0xa0>
    102a:	02 30       	cpi	r16, 0x02	; 2
    102c:	91 f0       	breq	.+36     	; 0x1052 <u8g2_font_decode_glyph+0xbe>
    102e:	03 30       	cpi	r16, 0x03	; 3
    1030:	d9 f0       	breq	.+54     	; 0x1068 <u8g2_font_decode_glyph+0xd4>
    1032:	23 c0       	rjmp	.+70     	; 0x107a <u8g2_font_decode_glyph+0xe6>
    1034:	2d 2d       	mov	r18, r13
    1036:	2c 0d       	add	r18, r12
    1038:	09 2d       	mov	r16, r9
    103a:	08 0f       	add	r16, r24
    103c:	20 c0       	rjmp	.+64     	; 0x107e <u8g2_font_decode_glyph+0xea>
    103e:	9c 2d       	mov	r25, r12
    1040:	99 19       	sub	r25, r9
    1042:	21 e0       	ldi	r18, 0x01	; 1
    1044:	2c 0d       	add	r18, r12
    1046:	0d 2d       	mov	r16, r13
    1048:	08 0f       	add	r16, r24
    104a:	cc 24       	eor	r12, r12
    104c:	c3 94       	inc	r12
    104e:	c9 0e       	add	r12, r25
    1050:	16 c0       	rjmp	.+44     	; 0x107e <u8g2_font_decode_glyph+0xea>
    1052:	91 e0       	ldi	r25, 0x01	; 1
    1054:	39 2f       	mov	r19, r25
    1056:	3d 19       	sub	r19, r13
    1058:	21 e0       	ldi	r18, 0x01	; 1
    105a:	2c 0d       	add	r18, r12
    105c:	99 19       	sub	r25, r9
    105e:	01 e0       	ldi	r16, 0x01	; 1
    1060:	08 0f       	add	r16, r24
    1062:	89 0f       	add	r24, r25
    1064:	c3 0e       	add	r12, r19
    1066:	0b c0       	rjmp	.+22     	; 0x107e <u8g2_font_decode_glyph+0xea>
    1068:	29 2d       	mov	r18, r9
    106a:	2c 0d       	add	r18, r12
    106c:	98 2f       	mov	r25, r24
    106e:	9d 19       	sub	r25, r13
    1070:	01 e0       	ldi	r16, 0x01	; 1
    1072:	08 0f       	add	r16, r24
    1074:	81 e0       	ldi	r24, 0x01	; 1
    1076:	89 0f       	add	r24, r25
    1078:	02 c0       	rjmp	.+4      	; 0x107e <u8g2_font_decode_glyph+0xea>
    107a:	08 2f       	mov	r16, r24
    107c:	2c 2d       	mov	r18, r12
    107e:	48 2f       	mov	r20, r24
    1080:	6c 2d       	mov	r22, r12
    1082:	ce 01       	movw	r24, r28
    1084:	0e 94 9b 0a 	call	0x1536	; 0x1536 <u8g2_IsIntersection>
    1088:	88 23       	and	r24, r24
    108a:	81 f1       	breq	.+96     	; 0x10ec <u8g2_font_decode_glyph+0x158>
    108c:	1e ae       	std	Y+62, r1	; 0x3e
    108e:	1f ae       	std	Y+63, r1	; 0x3f
    1090:	5e 01       	movw	r10, r28
    1092:	e9 e4       	ldi	r30, 0x49	; 73
    1094:	ae 0e       	add	r10, r30
    1096:	b1 1c       	adc	r11, r1
    1098:	6e 01       	movw	r12, r28
    109a:	fa e4       	ldi	r31, 0x4A	; 74
    109c:	cf 0e       	add	r12, r31
    109e:	d1 1c       	adc	r13, r1
    10a0:	f5 01       	movw	r30, r10
    10a2:	60 81       	ld	r22, Z
    10a4:	c7 01       	movw	r24, r14
    10a6:	0e 94 c2 06 	call	0xd84	; 0xd84 <u8g2_font_decode_get_unsigned_bits>
    10aa:	08 2f       	mov	r16, r24
    10ac:	f6 01       	movw	r30, r12
    10ae:	60 81       	ld	r22, Z
    10b0:	c7 01       	movw	r24, r14
    10b2:	0e 94 c2 06 	call	0xd84	; 0xd84 <u8g2_font_decode_get_unsigned_bits>
    10b6:	18 2f       	mov	r17, r24
    10b8:	40 e0       	ldi	r20, 0x00	; 0
    10ba:	60 2f       	mov	r22, r16
    10bc:	ce 01       	movw	r24, r28
    10be:	0e 94 30 07 	call	0xe60	; 0xe60 <u8g2_font_decode_len>
    10c2:	41 e0       	ldi	r20, 0x01	; 1
    10c4:	61 2f       	mov	r22, r17
    10c6:	ce 01       	movw	r24, r28
    10c8:	0e 94 30 07 	call	0xe60	; 0xe60 <u8g2_font_decode_len>
    10cc:	61 e0       	ldi	r22, 0x01	; 1
    10ce:	c7 01       	movw	r24, r14
    10d0:	0e 94 c2 06 	call	0xd84	; 0xd84 <u8g2_font_decode_get_unsigned_bits>
    10d4:	81 11       	cpse	r24, r1
    10d6:	f0 cf       	rjmp	.-32     	; 0x10b8 <u8g2_font_decode_glyph+0x124>
    10d8:	8f ad       	ldd	r24, Y+63	; 0x3f
    10da:	89 15       	cp	r24, r9
    10dc:	0c f3       	brlt	.-62     	; 0x10a0 <u8g2_font_decode_glyph+0x10c>
    10de:	fe 01       	movw	r30, r28
    10e0:	ec 59       	subi	r30, 0x9C	; 156
    10e2:	ff 4f       	sbci	r31, 0xFF	; 255
    10e4:	cc 5b       	subi	r28, 0xBC	; 188
    10e6:	df 4f       	sbci	r29, 0xFF	; 255
    10e8:	88 81       	ld	r24, Y
    10ea:	80 83       	st	Z, r24
    10ec:	88 2d       	mov	r24, r8
    10ee:	df 91       	pop	r29
    10f0:	cf 91       	pop	r28
    10f2:	1f 91       	pop	r17
    10f4:	0f 91       	pop	r16
    10f6:	ff 90       	pop	r15
    10f8:	ef 90       	pop	r14
    10fa:	df 90       	pop	r13
    10fc:	cf 90       	pop	r12
    10fe:	bf 90       	pop	r11
    1100:	af 90       	pop	r10
    1102:	9f 90       	pop	r9
    1104:	8f 90       	pop	r8
    1106:	08 95       	ret

00001108 <u8g2_font_get_glyph_data>:
    1108:	ef 92       	push	r14
    110a:	ff 92       	push	r15
    110c:	0f 93       	push	r16
    110e:	1f 93       	push	r17
    1110:	cf 93       	push	r28
    1112:	df 93       	push	r29
    1114:	fc 01       	movw	r30, r24
    1116:	c6 a9       	ldd	r28, Z+54	; 0x36
    1118:	d7 a9       	ldd	r29, Z+55	; 0x37
    111a:	67 96       	adiw	r28, 0x17	; 23
    111c:	6f 3f       	cpi	r22, 0xFF	; 255
    111e:	71 05       	cpc	r23, r1
    1120:	11 f0       	breq	.+4      	; 0x1126 <u8g2_font_get_glyph_data+0x1e>
    1122:	08 f0       	brcs	.+2      	; 0x1126 <u8g2_font_get_glyph_data+0x1e>
    1124:	36 c0       	rjmp	.+108    	; 0x1192 <u8g2_font_get_glyph_data+0x8a>
    1126:	61 36       	cpi	r22, 0x61	; 97
    1128:	71 05       	cpc	r23, r1
    112a:	38 f0       	brcs	.+14     	; 0x113a <u8g2_font_get_glyph_data+0x32>
    112c:	e6 5a       	subi	r30, 0xA6	; 166
    112e:	ff 4f       	sbci	r31, 0xFF	; 255
    1130:	80 81       	ld	r24, Z
    1132:	91 81       	ldd	r25, Z+1	; 0x01
    1134:	c8 0f       	add	r28, r24
    1136:	d9 1f       	adc	r29, r25
    1138:	0a c0       	rjmp	.+20     	; 0x114e <u8g2_font_get_glyph_data+0x46>
    113a:	61 34       	cpi	r22, 0x41	; 65
    113c:	71 05       	cpc	r23, r1
    113e:	38 f0       	brcs	.+14     	; 0x114e <u8g2_font_get_glyph_data+0x46>
    1140:	fc 01       	movw	r30, r24
    1142:	e8 5a       	subi	r30, 0xA8	; 168
    1144:	ff 4f       	sbci	r31, 0xFF	; 255
    1146:	80 81       	ld	r24, Z
    1148:	91 81       	ldd	r25, Z+1	; 0x01
    114a:	c8 0f       	add	r28, r24
    114c:	d9 1f       	adc	r29, r25
    114e:	ce 01       	movw	r24, r28
    1150:	01 96       	adiw	r24, 0x01	; 1
    1152:	fc 01       	movw	r30, r24
    1154:	24 91       	lpm	r18, Z
    1156:	22 23       	and	r18, r18
    1158:	09 f4       	brne	.+2      	; 0x115c <u8g2_font_get_glyph_data+0x54>
    115a:	5a c0       	rjmp	.+180    	; 0x1210 <u8g2_font_get_glyph_data+0x108>
    115c:	fe 01       	movw	r30, r28
    115e:	24 91       	lpm	r18, Z
    1160:	30 e0       	ldi	r19, 0x00	; 0
    1162:	62 17       	cp	r22, r18
    1164:	73 07       	cpc	r23, r19
    1166:	51 f4       	brne	.+20     	; 0x117c <u8g2_font_get_glyph_data+0x74>
    1168:	06 c0       	rjmp	.+12     	; 0x1176 <u8g2_font_get_glyph_data+0x6e>
    116a:	fe 01       	movw	r30, r28
    116c:	24 91       	lpm	r18, Z
    116e:	30 e0       	ldi	r19, 0x00	; 0
    1170:	62 17       	cp	r22, r18
    1172:	73 07       	cpc	r23, r19
    1174:	19 f4       	brne	.+6      	; 0x117c <u8g2_font_get_glyph_data+0x74>
    1176:	ce 01       	movw	r24, r28
    1178:	02 96       	adiw	r24, 0x02	; 2
    117a:	52 c0       	rjmp	.+164    	; 0x1220 <u8g2_font_get_glyph_data+0x118>
    117c:	fc 01       	movw	r30, r24
    117e:	84 91       	lpm	r24, Z
    1180:	c8 0f       	add	r28, r24
    1182:	d1 1d       	adc	r29, r1
    1184:	ce 01       	movw	r24, r28
    1186:	01 96       	adiw	r24, 0x01	; 1
    1188:	fc 01       	movw	r30, r24
    118a:	24 91       	lpm	r18, Z
    118c:	21 11       	cpse	r18, r1
    118e:	ed cf       	rjmp	.-38     	; 0x116a <u8g2_font_get_glyph_data+0x62>
    1190:	42 c0       	rjmp	.+132    	; 0x1216 <u8g2_font_get_glyph_data+0x10e>
    1192:	8b 01       	movw	r16, r22
    1194:	fc 01       	movw	r30, r24
    1196:	e4 5a       	subi	r30, 0xA4	; 164
    1198:	ff 4f       	sbci	r31, 0xFF	; 255
    119a:	80 81       	ld	r24, Z
    119c:	91 81       	ldd	r25, Z+1	; 0x01
    119e:	c8 0f       	add	r28, r24
    11a0:	d9 1f       	adc	r29, r25
    11a2:	7e 01       	movw	r14, r28
    11a4:	60 e0       	ldi	r22, 0x00	; 0
    11a6:	c7 01       	movw	r24, r14
    11a8:	0e 94 39 06 	call	0xc72	; 0xc72 <u8g2_font_get_word>
    11ac:	c8 0f       	add	r28, r24
    11ae:	d9 1f       	adc	r29, r25
    11b0:	62 e0       	ldi	r22, 0x02	; 2
    11b2:	c7 01       	movw	r24, r14
    11b4:	0e 94 39 06 	call	0xc72	; 0xc72 <u8g2_font_get_word>
    11b8:	f4 e0       	ldi	r31, 0x04	; 4
    11ba:	ef 0e       	add	r14, r31
    11bc:	f1 1c       	adc	r15, r1
    11be:	80 17       	cp	r24, r16
    11c0:	91 07       	cpc	r25, r17
    11c2:	80 f3       	brcs	.-32     	; 0x11a4 <u8g2_font_get_glyph_data+0x9c>
    11c4:	fe 01       	movw	r30, r28
    11c6:	84 91       	lpm	r24, Z
    11c8:	90 e0       	ldi	r25, 0x00	; 0
    11ca:	98 2f       	mov	r25, r24
    11cc:	88 27       	eor	r24, r24
    11ce:	31 96       	adiw	r30, 0x01	; 1
    11d0:	e4 91       	lpm	r30, Z
    11d2:	8e 2b       	or	r24, r30
    11d4:	00 97       	sbiw	r24, 0x00	; 0
    11d6:	11 f1       	breq	.+68     	; 0x121c <u8g2_font_get_glyph_data+0x114>
    11d8:	08 17       	cp	r16, r24
    11da:	19 07       	cpc	r17, r25
    11dc:	39 f4       	brne	.+14     	; 0x11ec <u8g2_font_get_glyph_data+0xe4>
    11de:	03 c0       	rjmp	.+6      	; 0x11e6 <u8g2_font_get_glyph_data+0xde>
    11e0:	08 17       	cp	r16, r24
    11e2:	19 07       	cpc	r17, r25
    11e4:	19 f4       	brne	.+6      	; 0x11ec <u8g2_font_get_glyph_data+0xe4>
    11e6:	ce 01       	movw	r24, r28
    11e8:	03 96       	adiw	r24, 0x03	; 3
    11ea:	1a c0       	rjmp	.+52     	; 0x1220 <u8g2_font_get_glyph_data+0x118>
    11ec:	fe 01       	movw	r30, r28
    11ee:	32 96       	adiw	r30, 0x02	; 2
    11f0:	e4 91       	lpm	r30, Z
    11f2:	ce 0f       	add	r28, r30
    11f4:	d1 1d       	adc	r29, r1
    11f6:	fe 01       	movw	r30, r28
    11f8:	84 91       	lpm	r24, Z
    11fa:	90 e0       	ldi	r25, 0x00	; 0
    11fc:	98 2f       	mov	r25, r24
    11fe:	88 27       	eor	r24, r24
    1200:	31 96       	adiw	r30, 0x01	; 1
    1202:	e4 91       	lpm	r30, Z
    1204:	8e 2b       	or	r24, r30
    1206:	00 97       	sbiw	r24, 0x00	; 0
    1208:	59 f7       	brne	.-42     	; 0x11e0 <u8g2_font_get_glyph_data+0xd8>
    120a:	80 e0       	ldi	r24, 0x00	; 0
    120c:	90 e0       	ldi	r25, 0x00	; 0
    120e:	08 c0       	rjmp	.+16     	; 0x1220 <u8g2_font_get_glyph_data+0x118>
    1210:	80 e0       	ldi	r24, 0x00	; 0
    1212:	90 e0       	ldi	r25, 0x00	; 0
    1214:	05 c0       	rjmp	.+10     	; 0x1220 <u8g2_font_get_glyph_data+0x118>
    1216:	80 e0       	ldi	r24, 0x00	; 0
    1218:	90 e0       	ldi	r25, 0x00	; 0
    121a:	02 c0       	rjmp	.+4      	; 0x1220 <u8g2_font_get_glyph_data+0x118>
    121c:	80 e0       	ldi	r24, 0x00	; 0
    121e:	90 e0       	ldi	r25, 0x00	; 0
    1220:	df 91       	pop	r29
    1222:	cf 91       	pop	r28
    1224:	1f 91       	pop	r17
    1226:	0f 91       	pop	r16
    1228:	ff 90       	pop	r15
    122a:	ef 90       	pop	r14
    122c:	08 95       	ret

0000122e <u8g2_DrawGlyph>:
    122e:	ef 92       	push	r14
    1230:	ff 92       	push	r15
    1232:	0f 93       	push	r16
    1234:	1f 93       	push	r17
    1236:	cf 93       	push	r28
    1238:	df 93       	push	r29
    123a:	ec 01       	movw	r28, r24
    123c:	06 2f       	mov	r16, r22
    123e:	14 2f       	mov	r17, r20
    1240:	79 01       	movw	r14, r18
    1242:	fc 01       	movw	r30, r24
    1244:	ea 5b       	subi	r30, 0xBA	; 186
    1246:	ff 4f       	sbci	r31, 0xFF	; 255
    1248:	80 81       	ld	r24, Z
    124a:	81 30       	cpi	r24, 0x01	; 1
    124c:	61 f0       	breq	.+24     	; 0x1266 <u8g2_DrawGlyph+0x38>
    124e:	28 f0       	brcs	.+10     	; 0x125a <u8g2_DrawGlyph+0x2c>
    1250:	82 30       	cpi	r24, 0x02	; 2
    1252:	79 f0       	breq	.+30     	; 0x1272 <u8g2_DrawGlyph+0x44>
    1254:	83 30       	cpi	r24, 0x03	; 3
    1256:	99 f0       	breq	.+38     	; 0x127e <u8g2_DrawGlyph+0x50>
    1258:	17 c0       	rjmp	.+46     	; 0x1288 <u8g2_DrawGlyph+0x5a>
    125a:	e8 ad       	ldd	r30, Y+56	; 0x38
    125c:	f9 ad       	ldd	r31, Y+57	; 0x39
    125e:	ce 01       	movw	r24, r28
    1260:	09 95       	icall
    1262:	18 0f       	add	r17, r24
    1264:	11 c0       	rjmp	.+34     	; 0x1288 <u8g2_DrawGlyph+0x5a>
    1266:	e8 ad       	ldd	r30, Y+56	; 0x38
    1268:	f9 ad       	ldd	r31, Y+57	; 0x39
    126a:	ce 01       	movw	r24, r28
    126c:	09 95       	icall
    126e:	08 1b       	sub	r16, r24
    1270:	0b c0       	rjmp	.+22     	; 0x1288 <u8g2_DrawGlyph+0x5a>
    1272:	e8 ad       	ldd	r30, Y+56	; 0x38
    1274:	f9 ad       	ldd	r31, Y+57	; 0x39
    1276:	ce 01       	movw	r24, r28
    1278:	09 95       	icall
    127a:	18 1b       	sub	r17, r24
    127c:	05 c0       	rjmp	.+10     	; 0x1288 <u8g2_DrawGlyph+0x5a>
    127e:	e8 ad       	ldd	r30, Y+56	; 0x38
    1280:	f9 ad       	ldd	r31, Y+57	; 0x39
    1282:	ce 01       	movw	r24, r28
    1284:	09 95       	icall
    1286:	08 0f       	add	r16, r24
    1288:	0c af       	std	Y+60, r16	; 0x3c
    128a:	1d af       	std	Y+61, r17	; 0x3d
    128c:	b7 01       	movw	r22, r14
    128e:	ce 01       	movw	r24, r28
    1290:	0e 94 84 08 	call	0x1108	; 0x1108 <u8g2_font_get_glyph_data>
    1294:	00 97       	sbiw	r24, 0x00	; 0
    1296:	29 f0       	breq	.+10     	; 0x12a2 <u8g2_DrawGlyph+0x74>
    1298:	bc 01       	movw	r22, r24
    129a:	ce 01       	movw	r24, r28
    129c:	0e 94 ca 07 	call	0xf94	; 0xf94 <u8g2_font_decode_glyph>
    12a0:	01 c0       	rjmp	.+2      	; 0x12a4 <u8g2_DrawGlyph+0x76>
    12a2:	80 e0       	ldi	r24, 0x00	; 0
    12a4:	df 91       	pop	r29
    12a6:	cf 91       	pop	r28
    12a8:	1f 91       	pop	r17
    12aa:	0f 91       	pop	r16
    12ac:	ff 90       	pop	r15
    12ae:	ef 90       	pop	r14
    12b0:	08 95       	ret

000012b2 <u8g2_draw_string>:
    12b2:	bf 92       	push	r11
    12b4:	cf 92       	push	r12
    12b6:	df 92       	push	r13
    12b8:	ef 92       	push	r14
    12ba:	ff 92       	push	r15
    12bc:	0f 93       	push	r16
    12be:	1f 93       	push	r17
    12c0:	cf 93       	push	r28
    12c2:	df 93       	push	r29
    12c4:	ec 01       	movw	r28, r24
    12c6:	b6 2e       	mov	r11, r22
    12c8:	c4 2e       	mov	r12, r20
    12ca:	e2 2e       	mov	r14, r18
    12cc:	f3 2e       	mov	r15, r19
    12ce:	0e 94 e7 0b 	call	0x17ce	; 0x17ce <u8x8_utf8_init>
    12d2:	0e 2d       	mov	r16, r14
    12d4:	1f 2d       	mov	r17, r15
    12d6:	d1 2c       	mov	r13, r1
    12d8:	7e 01       	movw	r14, r28
    12da:	26 e4       	ldi	r18, 0x46	; 70
    12dc:	e2 0e       	add	r14, r18
    12de:	f1 1c       	adc	r15, r1
    12e0:	f8 01       	movw	r30, r16
    12e2:	61 91       	ld	r22, Z+
    12e4:	8f 01       	movw	r16, r30
    12e6:	ea 81       	ldd	r30, Y+2	; 0x02
    12e8:	fb 81       	ldd	r31, Y+3	; 0x03
    12ea:	ce 01       	movw	r24, r28
    12ec:	09 95       	icall
    12ee:	8f 3f       	cpi	r24, 0xFF	; 255
    12f0:	ff ef       	ldi	r31, 0xFF	; 255
    12f2:	9f 07       	cpc	r25, r31
    12f4:	e9 f0       	breq	.+58     	; 0x1330 <u8g2_draw_string+0x7e>
    12f6:	8e 3f       	cpi	r24, 0xFE	; 254
    12f8:	2f ef       	ldi	r18, 0xFF	; 255
    12fa:	92 07       	cpc	r25, r18
    12fc:	89 f3       	breq	.-30     	; 0x12e0 <u8g2_draw_string+0x2e>
    12fe:	9c 01       	movw	r18, r24
    1300:	4c 2d       	mov	r20, r12
    1302:	6b 2d       	mov	r22, r11
    1304:	ce 01       	movw	r24, r28
    1306:	0e 94 17 09 	call	0x122e	; 0x122e <u8g2_DrawGlyph>
    130a:	f7 01       	movw	r30, r14
    130c:	90 81       	ld	r25, Z
    130e:	91 30       	cpi	r25, 0x01	; 1
    1310:	41 f0       	breq	.+16     	; 0x1322 <u8g2_draw_string+0x70>
    1312:	28 f0       	brcs	.+10     	; 0x131e <u8g2_draw_string+0x6c>
    1314:	92 30       	cpi	r25, 0x02	; 2
    1316:	39 f0       	breq	.+14     	; 0x1326 <u8g2_draw_string+0x74>
    1318:	93 30       	cpi	r25, 0x03	; 3
    131a:	39 f0       	breq	.+14     	; 0x132a <u8g2_draw_string+0x78>
    131c:	07 c0       	rjmp	.+14     	; 0x132c <u8g2_draw_string+0x7a>
    131e:	b8 0e       	add	r11, r24
    1320:	05 c0       	rjmp	.+10     	; 0x132c <u8g2_draw_string+0x7a>
    1322:	c8 0e       	add	r12, r24
    1324:	03 c0       	rjmp	.+6      	; 0x132c <u8g2_draw_string+0x7a>
    1326:	b8 1a       	sub	r11, r24
    1328:	01 c0       	rjmp	.+2      	; 0x132c <u8g2_draw_string+0x7a>
    132a:	c8 1a       	sub	r12, r24
    132c:	d8 0e       	add	r13, r24
    132e:	d8 cf       	rjmp	.-80     	; 0x12e0 <u8g2_draw_string+0x2e>
    1330:	8d 2d       	mov	r24, r13
    1332:	df 91       	pop	r29
    1334:	cf 91       	pop	r28
    1336:	1f 91       	pop	r17
    1338:	0f 91       	pop	r16
    133a:	ff 90       	pop	r15
    133c:	ef 90       	pop	r14
    133e:	df 90       	pop	r13
    1340:	cf 90       	pop	r12
    1342:	bf 90       	pop	r11
    1344:	08 95       	ret

00001346 <u8g2_DrawStr>:
    1346:	ea ed       	ldi	r30, 0xDA	; 218
    1348:	fb e0       	ldi	r31, 0x0B	; 11
    134a:	dc 01       	movw	r26, r24
    134c:	13 96       	adiw	r26, 0x03	; 3
    134e:	fc 93       	st	X, r31
    1350:	ee 93       	st	-X, r30
    1352:	12 97       	sbiw	r26, 0x02	; 2
    1354:	0e 94 59 09 	call	0x12b2	; 0x12b2 <u8g2_draw_string>
    1358:	08 95       	ret

0000135a <u8g2_UpdateRefHeight>:
    135a:	fc 01       	movw	r30, r24
    135c:	26 a9       	ldd	r18, Z+54	; 0x36
    135e:	37 a9       	ldd	r19, Z+55	; 0x37
    1360:	23 2b       	or	r18, r19
    1362:	e9 f1       	breq	.+122    	; 0x13de <u8g2_UpdateRefHeight+0x84>
    1364:	ec 5a       	subi	r30, 0xAC	; 172
    1366:	ff 4f       	sbci	r31, 0xFF	; 255
    1368:	20 81       	ld	r18, Z
    136a:	3c 96       	adiw	r30, 0x0c	; 12
    136c:	20 83       	st	Z, r18
    136e:	3b 97       	sbiw	r30, 0x0b	; 11
    1370:	40 81       	ld	r20, Z
    1372:	3c 96       	adiw	r30, 0x0c	; 12
    1374:	40 83       	st	Z, r20
    1376:	32 97       	sbiw	r30, 0x02	; 2
    1378:	30 81       	ld	r19, Z
    137a:	33 23       	and	r19, r19
    137c:	81 f1       	breq	.+96     	; 0x13de <u8g2_UpdateRefHeight+0x84>
    137e:	31 30       	cpi	r19, 0x01	; 1
    1380:	79 f4       	brne	.+30     	; 0x13a0 <u8g2_UpdateRefHeight+0x46>
    1382:	39 97       	sbiw	r30, 0x09	; 9
    1384:	30 81       	ld	r19, Z
    1386:	23 17       	cp	r18, r19
    1388:	14 f4       	brge	.+4      	; 0x138e <u8g2_UpdateRefHeight+0x34>
    138a:	3a 96       	adiw	r30, 0x0a	; 10
    138c:	30 83       	st	Z, r19
    138e:	fc 01       	movw	r30, r24
    1390:	e9 5a       	subi	r30, 0xA9	; 169
    1392:	ff 4f       	sbci	r31, 0xFF	; 255
    1394:	20 81       	ld	r18, Z
    1396:	24 17       	cp	r18, r20
    1398:	14 f5       	brge	.+68     	; 0x13de <u8g2_UpdateRefHeight+0x84>
    139a:	3a 96       	adiw	r30, 0x0a	; 10
    139c:	20 83       	st	Z, r18
    139e:	08 95       	ret
    13a0:	fc 01       	movw	r30, r24
    13a2:	ef 5a       	subi	r30, 0xAF	; 175
    13a4:	ff 4f       	sbci	r31, 0xFF	; 255
    13a6:	e0 81       	ld	r30, Z
    13a8:	dc 01       	movw	r26, r24
    13aa:	ad 5a       	subi	r26, 0xAD	; 173
    13ac:	bf 4f       	sbci	r27, 0xFF	; 255
    13ae:	5c 91       	ld	r21, X
    13b0:	02 2e       	mov	r0, r18
    13b2:	00 0c       	add	r0, r0
    13b4:	33 0b       	sbc	r19, r19
    13b6:	65 2f       	mov	r22, r21
    13b8:	05 2e       	mov	r0, r21
    13ba:	00 0c       	add	r0, r0
    13bc:	77 0b       	sbc	r23, r23
    13be:	6e 0f       	add	r22, r30
    13c0:	71 1d       	adc	r23, r1
    13c2:	e7 fd       	sbrc	r30, 7
    13c4:	7a 95       	dec	r23
    13c6:	26 17       	cp	r18, r22
    13c8:	37 07       	cpc	r19, r23
    13ca:	1c f4       	brge	.+6      	; 0x13d2 <u8g2_UpdateRefHeight+0x78>
    13cc:	1d 96       	adiw	r26, 0x0d	; 13
    13ce:	e5 0f       	add	r30, r21
    13d0:	ec 93       	st	X, r30
    13d2:	54 17       	cp	r21, r20
    13d4:	24 f4       	brge	.+8      	; 0x13de <u8g2_UpdateRefHeight+0x84>
    13d6:	fc 01       	movw	r30, r24
    13d8:	ef 59       	subi	r30, 0x9F	; 159
    13da:	ff 4f       	sbci	r31, 0xFF	; 255
    13dc:	50 83       	st	Z, r21
    13de:	08 95       	ret

000013e0 <u8g2_SetFontPosBaseline>:
    13e0:	21 e6       	ldi	r18, 0x61	; 97
    13e2:	36 e0       	ldi	r19, 0x06	; 6
    13e4:	fc 01       	movw	r30, r24
    13e6:	31 af       	std	Z+57, r19	; 0x39
    13e8:	20 af       	std	Z+56, r18	; 0x38
    13ea:	08 95       	ret

000013ec <u8g2_SetFont>:
}

/*===============================================*/

void u8g2_SetFont(u8g2_t *u8g2, const uint8_t  *font)
{
    13ec:	cf 93       	push	r28
    13ee:	df 93       	push	r29
  if ( u8g2->font != font )
    13f0:	fc 01       	movw	r30, r24
    13f2:	26 a9       	ldd	r18, Z+54	; 0x36
    13f4:	37 a9       	ldd	r19, Z+55	; 0x37
    13f6:	26 17       	cp	r18, r22
    13f8:	37 07       	cpc	r19, r23
    13fa:	51 f0       	breq	.+20     	; 0x1410 <u8g2_SetFont+0x24>
    13fc:	ec 01       	movw	r28, r24
  {
//#ifdef  __unix__
//	u8g2->last_font_data = NULL;
//	u8g2->last_unicode = 0x0ffff;
//#endif 
    u8g2->font = font;
    13fe:	77 ab       	std	Z+55, r23	; 0x37
    1400:	66 ab       	std	Z+54, r22	; 0x36
    u8g2_read_font_info(&(u8g2->font_info), font);
    1402:	89 5b       	subi	r24, 0xB9	; 185
    1404:	9f 4f       	sbci	r25, 0xFF	; 255
    1406:	0e 94 63 06 	call	0xcc6	; 0xcc6 <u8g2_read_font_info>
    u8g2_UpdateRefHeight(u8g2);
    140a:	ce 01       	movw	r24, r28
    140c:	0e 94 ad 09 	call	0x135a	; 0x135a <u8g2_UpdateRefHeight>
    /* u8g2_SetFontPosBaseline(u8g2); */ /* removed with issue 195 */
  }
}
    1410:	df 91       	pop	r29
    1412:	cf 91       	pop	r28
    1414:	08 95       	ret

00001416 <u8g2_draw_hv_line_2dir>:
  This function first adjusts the y position to the local buffer. Then it
  will clip the line and call u8g2_draw_low_level_hv_line()

*/
void u8g2_draw_hv_line_2dir(u8g2_t *u8g2, u8g2_uint_t x, u8g2_uint_t y, u8g2_uint_t len, uint8_t dir)
{
    1416:	0f 93       	push	r16
  /* clipping happens before the display rotation */

  /* transform to pixel buffer coordinates */
  y -= u8g2->pixel_curr_row;
  
  u8g2->ll_hvline(u8g2, x, y, len, dir);
    1418:	dc 01       	movw	r26, r24
    141a:	99 96       	adiw	r26, 0x29	; 41
    141c:	3c 91       	ld	r19, X
    141e:	99 97       	sbiw	r26, 0x29	; 41
    1420:	43 1b       	sub	r20, r19
    1422:	5f 96       	adiw	r26, 0x1f	; 31
    1424:	ed 91       	ld	r30, X+
    1426:	fc 91       	ld	r31, X
    1428:	90 97       	sbiw	r26, 0x20	; 32
    142a:	09 95       	icall
}
    142c:	0f 91       	pop	r16
    142e:	08 95       	ret

00001430 <u8g2_DrawHVLine>:
  This function should be called by the user.
  
  "dir" may have 4 directions: 0 (left to right), 1, 2, 3 (down up)
*/
void u8g2_DrawHVLine(u8g2_t *u8g2, u8g2_uint_t x, u8g2_uint_t y, u8g2_uint_t len, uint8_t dir)
{
    1430:	0f 93       	push	r16
  /* Make a call to the callback function (e.g. u8g2_draw_l90_r0). */
  /* The callback may rotate the hv line */
  /* after rotation this will call u8g2_draw_hv_line_4dir() */
  
#ifdef U8G2_WITH_CLIP_WINDOW_SUPPORT
  if ( u8g2->is_page_clip_window_intersection != 0 )
    1432:	fc 01       	movw	r30, r24
    1434:	e2 5a       	subi	r30, 0xA2	; 162
    1436:	ff 4f       	sbci	r31, 0xFF	; 255
    1438:	30 81       	ld	r19, Z
    143a:	33 23       	and	r19, r19
    143c:	09 f4       	brne	.+2      	; 0x1440 <u8g2_DrawHVLine+0x10>
    143e:	65 c0       	rjmp	.+202    	; 0x150a <u8g2_DrawHVLine+0xda>
#endif /* U8G2_WITH_CLIP_WINDOW_SUPPORT */
    if ( len != 0 )
    1440:	22 23       	and	r18, r18
    1442:	09 f4       	brne	.+2      	; 0x1446 <u8g2_DrawHVLine+0x16>
    1444:	62 c0       	rjmp	.+196    	; 0x150a <u8g2_DrawHVLine+0xda>
    {
    
      /* convert to two directions */    
      if ( len > 1 )
    1446:	22 30       	cpi	r18, 0x02	; 2
    1448:	58 f0       	brcs	.+22     	; 0x1460 <u8g2_DrawHVLine+0x30>
      {
	if ( dir == 2 )
    144a:	02 30       	cpi	r16, 0x02	; 2
    144c:	19 f4       	brne	.+6      	; 0x1454 <u8g2_DrawHVLine+0x24>
    144e:	6f 5f       	subi	r22, 0xFF	; 255
	{
	  x -= len;
	  x++;
    1450:	62 1b       	sub	r22, r18
    1452:	0a c0       	rjmp	.+20     	; 0x1468 <u8g2_DrawHVLine+0x38>
	}
	else if ( dir == 3 )
    1454:	03 30       	cpi	r16, 0x03	; 3
    1456:	21 f4       	brne	.+8      	; 0x1460 <u8g2_DrawHVLine+0x30>
    1458:	4f 5f       	subi	r20, 0xFF	; 255
	{
	  y -= len;
	  y++;
    145a:	42 1b       	sub	r20, r18
	}
      }
      dir &= 1;  
    145c:	51 e0       	ldi	r21, 0x01	; 1
    145e:	2d c0       	rjmp	.+90     	; 0x14ba <u8g2_DrawHVLine+0x8a>
      
      /* clip against the user window */
      if ( dir == 0 )
    1460:	50 2f       	mov	r21, r16
    1462:	51 70       	andi	r21, 0x01	; 1
    1464:	00 fd       	sbrc	r16, 0
    1466:	29 c0       	rjmp	.+82     	; 0x14ba <u8g2_DrawHVLine+0x8a>
      {
	if ( y < u8g2->user_y0 )
    1468:	dc 01       	movw	r26, r24
    146a:	d0 96       	adiw	r26, 0x30	; 48
    146c:	3c 91       	ld	r19, X
    146e:	d0 97       	sbiw	r26, 0x30	; 48
    1470:	43 17       	cp	r20, r19
    1472:	08 f4       	brcc	.+2      	; 0x1476 <u8g2_DrawHVLine+0x46>
    1474:	4a c0       	rjmp	.+148    	; 0x150a <u8g2_DrawHVLine+0xda>
	  return;
	if ( y >= u8g2->user_y1 )
    1476:	d1 96       	adiw	r26, 0x31	; 49
    1478:	3c 91       	ld	r19, X
    147a:	d1 97       	sbiw	r26, 0x31	; 49
    147c:	43 17       	cp	r20, r19
    147e:	08 f0       	brcs	.+2      	; 0x1482 <u8g2_DrawHVLine+0x52>
    1480:	44 c0       	rjmp	.+136    	; 0x150a <u8g2_DrawHVLine+0xda>
	  return;
	if ( u8g2_clip_intersection2(&x, &len, u8g2->user_x0, u8g2->user_x1) == 0 )
    1482:	9f 96       	adiw	r26, 0x2f	; 47
    1484:	3c 91       	ld	r19, X
    1486:	9f 97       	sbiw	r26, 0x2f	; 47
    1488:	9e 96       	adiw	r26, 0x2e	; 46
    148a:	5c 91       	ld	r21, X
static uint8_t u8g2_clip_intersection2(u8g2_uint_t *ap, u8g2_uint_t *len, u8g2_uint_t c, u8g2_uint_t d)
{
  u8g2_uint_t a = *ap;
  u8g2_uint_t b;
  b  = a;
  b += *len;
    148c:	26 0f       	add	r18, r22
  /* be removed completly (be aware about memory curruption for wrong */
  /* arguments) or return 0 for a>b (will lead to skipped lines for wrong */
  /* arguments) */  
  
  /* removing the following if clause completly may lead to memory corruption of a>b */
  if ( a > b )
    148e:	26 17       	cp	r18, r22
    1490:	30 f4       	brcc	.+12     	; 0x149e <u8g2_DrawHVLine+0x6e>
  {    
    /* replacing this if with a simple "return 0;" will not handle the case with negative a */    
    if ( a < d )
    1492:	63 17       	cp	r22, r19
    1494:	18 f4       	brcc	.+6      	; 0x149c <u8g2_DrawHVLine+0x6c>
    {
      b = d;
      b--;
    1496:	2f ef       	ldi	r18, 0xFF	; 255
    1498:	23 0f       	add	r18, r19
    149a:	03 c0       	rjmp	.+6      	; 0x14a2 <u8g2_DrawHVLine+0x72>
    }
    else
    {
      a = c;
    149c:	65 2f       	mov	r22, r21
    }
  }
  
  /* from now on, the asumption a <= b is ok */
  
  if ( a >= d )
    149e:	63 17       	cp	r22, r19
    14a0:	a0 f5       	brcc	.+104    	; 0x150a <u8g2_DrawHVLine+0xda>
    return 0;
  if ( b <= c )
    14a2:	52 17       	cp	r21, r18
    14a4:	90 f5       	brcc	.+100    	; 0x150a <u8g2_DrawHVLine+0xda>
    14a6:	65 17       	cp	r22, r21
    14a8:	08 f4       	brcc	.+2      	; 0x14ac <u8g2_DrawHVLine+0x7c>
    14aa:	65 2f       	mov	r22, r21
    a = c;
  if ( b > d )
    b = d;
  
  *ap = a;
  b -= a;
    14ac:	23 17       	cp	r18, r19
    14ae:	08 f4       	brcc	.+2      	; 0x14b2 <u8g2_DrawHVLine+0x82>
    14b0:	32 2f       	mov	r19, r18
    14b2:	23 2f       	mov	r18, r19
    14b4:	26 1b       	sub	r18, r22
    14b6:	50 e0       	ldi	r21, 0x00	; 0
    14b8:	1e c0       	rjmp	.+60     	; 0x14f6 <u8g2_DrawHVLine+0xc6>
	if ( u8g2_clip_intersection2(&x, &len, u8g2->user_x0, u8g2->user_x1) == 0 )
	  return;
      }
      else
      {
	if ( x < u8g2->user_x0 )
    14ba:	fc 01       	movw	r30, r24
    14bc:	36 a5       	ldd	r19, Z+46	; 0x2e
    14be:	63 17       	cp	r22, r19
    14c0:	20 f1       	brcs	.+72     	; 0x150a <u8g2_DrawHVLine+0xda>
	  return;
	if ( x >= u8g2->user_x1 )
    14c2:	37 a5       	ldd	r19, Z+47	; 0x2f
    14c4:	63 17       	cp	r22, r19
    14c6:	08 f5       	brcc	.+66     	; 0x150a <u8g2_DrawHVLine+0xda>
	  return;
	if ( u8g2_clip_intersection2(&y, &len, u8g2->user_y0, u8g2->user_y1) == 0 )
    14c8:	31 a9       	ldd	r19, Z+49	; 0x31
    14ca:	70 a9       	ldd	r23, Z+48	; 0x30
static uint8_t u8g2_clip_intersection2(u8g2_uint_t *ap, u8g2_uint_t *len, u8g2_uint_t c, u8g2_uint_t d)
{
  u8g2_uint_t a = *ap;
  u8g2_uint_t b;
  b  = a;
  b += *len;
    14cc:	24 0f       	add	r18, r20
  /* be removed completly (be aware about memory curruption for wrong */
  /* arguments) or return 0 for a>b (will lead to skipped lines for wrong */
  /* arguments) */  
  
  /* removing the following if clause completly may lead to memory corruption of a>b */
  if ( a > b )
    14ce:	24 17       	cp	r18, r20
    14d0:	30 f4       	brcc	.+12     	; 0x14de <u8g2_DrawHVLine+0xae>
  {    
    /* replacing this if with a simple "return 0;" will not handle the case with negative a */    
    if ( a < d )
    14d2:	43 17       	cp	r20, r19
    14d4:	18 f4       	brcc	.+6      	; 0x14dc <u8g2_DrawHVLine+0xac>
    {
      b = d;
      b--;
    14d6:	2f ef       	ldi	r18, 0xFF	; 255
    14d8:	23 0f       	add	r18, r19
    14da:	03 c0       	rjmp	.+6      	; 0x14e2 <u8g2_DrawHVLine+0xb2>
    }
    else
    {
      a = c;
    14dc:	47 2f       	mov	r20, r23
    }
  }
  
  /* from now on, the asumption a <= b is ok */
  
  if ( a >= d )
    14de:	43 17       	cp	r20, r19
    14e0:	a0 f4       	brcc	.+40     	; 0x150a <u8g2_DrawHVLine+0xda>
    return 0;
  if ( b <= c )
    14e2:	72 17       	cp	r23, r18
    14e4:	90 f4       	brcc	.+36     	; 0x150a <u8g2_DrawHVLine+0xda>
    14e6:	47 17       	cp	r20, r23
    14e8:	08 f4       	brcc	.+2      	; 0x14ec <u8g2_DrawHVLine+0xbc>
    14ea:	47 2f       	mov	r20, r23
    a = c;
  if ( b > d )
    b = d;
  
  *ap = a;
  b -= a;
    14ec:	23 17       	cp	r18, r19
    14ee:	08 f4       	brcc	.+2      	; 0x14f2 <u8g2_DrawHVLine+0xc2>
    14f0:	32 2f       	mov	r19, r18
    14f2:	23 2f       	mov	r18, r19
    14f4:	24 1b       	sub	r18, r20
	if ( u8g2_clip_intersection2(&y, &len, u8g2->user_y0, u8g2->user_y1) == 0 )
	  return;
      }
      
      
      u8g2->cb->draw_l90(u8g2, x, y, len, dir);
    14f6:	dc 01       	movw	r26, r24
    14f8:	91 96       	adiw	r26, 0x21	; 33
    14fa:	ed 91       	ld	r30, X+
    14fc:	fc 91       	ld	r31, X
    14fe:	92 97       	sbiw	r26, 0x22	; 34
    1500:	04 80       	ldd	r0, Z+4	; 0x04
    1502:	f5 81       	ldd	r31, Z+5	; 0x05
    1504:	e0 2d       	mov	r30, r0
    1506:	05 2f       	mov	r16, r21
    1508:	09 95       	icall
    }
}
    150a:	0f 91       	pop	r16
    150c:	08 95       	ret

0000150e <u8g2_is_intersection_decision_tree>:
  a1 and v1 are excluded
  v0 == v1 is not support end return 1
*/
uint8_t u8g2_is_intersection_decision_tree(u8g2_uint_t a0, u8g2_uint_t a1, u8g2_uint_t v0, u8g2_uint_t v1)
{
  if ( v0 < a1 )		// v0 <= a1
    150e:	46 17       	cp	r20, r22
    1510:	38 f4       	brcc	.+14     	; 0x1520 <u8g2_is_intersection_decision_tree+0x12>
  {
    if ( v1 > a0 )	// v1 >= a0
    1512:	82 17       	cp	r24, r18
    1514:	60 f0       	brcs	.+24     	; 0x152e <u8g2_is_intersection_decision_tree+0x20>
    {
      return 1;
    1516:	81 e0       	ldi	r24, 0x01	; 1
    1518:	24 17       	cp	r18, r20
    151a:	60 f0       	brcs	.+24     	; 0x1534 <u8g2_is_intersection_decision_tree+0x26>
    151c:	80 e0       	ldi	r24, 0x00	; 0
    151e:	08 95       	ret
      }
    }
  }
  else
  {
    if ( v1 > a0 )	// v1 >= a0
    1520:	82 17       	cp	r24, r18
    1522:	38 f4       	brcc	.+14     	; 0x1532 <u8g2_is_intersection_decision_tree+0x24>
{
  if ( v0 < a1 )		// v0 <= a1
  {
    if ( v1 > a0 )	// v1 >= a0
    {
      return 1;
    1524:	81 e0       	ldi	r24, 0x01	; 1
    1526:	24 17       	cp	r18, r20
    1528:	28 f0       	brcs	.+10     	; 0x1534 <u8g2_is_intersection_decision_tree+0x26>
    152a:	80 e0       	ldi	r24, 0x00	; 0
    152c:	08 95       	ret
    152e:	81 e0       	ldi	r24, 0x01	; 1
    1530:	08 95       	ret
	return 0;
      }
    }
    else
    {
      return 0;
    1532:	80 e0       	ldi	r24, 0x00	; 0
    }
  }
}
    1534:	08 95       	ret

00001536 <u8g2_IsIntersection>:



/* upper limits are not included (asymetric boundaries) */
uint8_t u8g2_IsIntersection(u8g2_t *u8g2, u8g2_uint_t x0, u8g2_uint_t y0, u8g2_uint_t x1, u8g2_uint_t y1)
{
    1536:	ff 92       	push	r15
    1538:	0f 93       	push	r16
    153a:	1f 93       	push	r17
    153c:	cf 93       	push	r28
    153e:	df 93       	push	r29
    1540:	ec 01       	movw	r28, r24
    1542:	16 2f       	mov	r17, r22
    1544:	f2 2e       	mov	r15, r18
    1546:	20 2f       	mov	r18, r16
  if ( u8g2_is_intersection_decision_tree(u8g2->user_y0, u8g2->user_y1, y0, y1) == 0 )
    1548:	69 a9       	ldd	r22, Y+49	; 0x31
    154a:	88 a9       	ldd	r24, Y+48	; 0x30
    154c:	0e 94 87 0a 	call	0x150e	; 0x150e <u8g2_is_intersection_decision_tree>
    1550:	88 23       	and	r24, r24
    1552:	31 f0       	breq	.+12     	; 0x1560 <u8g2_IsIntersection+0x2a>
    return 0; 
  
  return u8g2_is_intersection_decision_tree(u8g2->user_x0, u8g2->user_x1, x0, x1);
    1554:	2f 2d       	mov	r18, r15
    1556:	41 2f       	mov	r20, r17
    1558:	6f a5       	ldd	r22, Y+47	; 0x2f
    155a:	8e a5       	ldd	r24, Y+46	; 0x2e
    155c:	0e 94 87 0a 	call	0x150e	; 0x150e <u8g2_is_intersection_decision_tree>
}
    1560:	df 91       	pop	r29
    1562:	cf 91       	pop	r28
    1564:	1f 91       	pop	r17
    1566:	0f 91       	pop	r16
    1568:	ff 90       	pop	r15
    156a:	08 95       	ret

0000156c <u8g2_ll_hvline_vertical_top_lsb>:
		1: vertical line (top to bottom)
  asumption: 
    all clipping done
*/
void u8g2_ll_hvline_vertical_top_lsb(u8g2_t *u8g2, u8g2_uint_t x, u8g2_uint_t y, u8g2_uint_t len, uint8_t dir)
{
    156c:	ef 92       	push	r14
    156e:	ff 92       	push	r15
    1570:	0f 93       	push	r16
    1572:	cf 93       	push	r28
    1574:	df 93       	push	r29
    1576:	7c 01       	movw	r14, r24
  //assert(y >= u8g2->buf_y0);
  //assert(y < u8g2_GetU8x8(u8g2)->display_info->tile_height*8);
  
  /* bytes are vertical, lsb on top (y=0), msb at bottom (y=7) */
  bit_pos = y;		/* overflow truncate is ok here... */
  bit_pos &= 7; 	/* ... because only the lowest 3 bits are needed */
    1578:	34 2f       	mov	r19, r20
    157a:	37 70       	andi	r19, 0x07	; 7
  mask = 1;
  mask <<= bit_pos;
    157c:	81 e0       	ldi	r24, 0x01	; 1
    157e:	90 e0       	ldi	r25, 0x00	; 0
    1580:	03 2e       	mov	r0, r19
    1582:	02 c0       	rjmp	.+4      	; 0x1588 <u8g2_ll_hvline_vertical_top_lsb+0x1c>
    1584:	88 0f       	add	r24, r24
    1586:	99 1f       	adc	r25, r25
    1588:	0a 94       	dec	r0
    158a:	e2 f7       	brpl	.-8      	; 0x1584 <u8g2_ll_hvline_vertical_top_lsb+0x18>
    158c:	c8 2f       	mov	r28, r24

  or_mask = 0;
  xor_mask = 0;
  if ( u8g2->draw_color <= 1 )
    158e:	f7 01       	movw	r30, r14
    1590:	ec 59       	subi	r30, 0x9C	; 156
    1592:	ff 4f       	sbci	r31, 0xFF	; 255
    1594:	50 81       	ld	r21, Z
    1596:	52 30       	cpi	r21, 0x02	; 2
    1598:	20 f4       	brcc	.+8      	; 0x15a2 <u8g2_ll_hvline_vertical_top_lsb+0x36>
    or_mask  = mask;
  if ( u8g2->draw_color != 1 )
    159a:	51 30       	cpi	r21, 0x01	; 1
    159c:	21 f0       	breq	.+8      	; 0x15a6 <u8g2_ll_hvline_vertical_top_lsb+0x3a>
  mask <<= bit_pos;

  or_mask = 0;
  xor_mask = 0;
  if ( u8g2->draw_color <= 1 )
    or_mask  = mask;
    159e:	78 2f       	mov	r23, r24
    15a0:	04 c0       	rjmp	.+8      	; 0x15aa <u8g2_ll_hvline_vertical_top_lsb+0x3e>
  bit_pos = y;		/* overflow truncate is ok here... */
  bit_pos &= 7; 	/* ... because only the lowest 3 bits are needed */
  mask = 1;
  mask <<= bit_pos;

  or_mask = 0;
    15a2:	70 e0       	ldi	r23, 0x00	; 0
    15a4:	02 c0       	rjmp	.+4      	; 0x15aa <u8g2_ll_hvline_vertical_top_lsb+0x3e>
  xor_mask = 0;
  if ( u8g2->draw_color <= 1 )
    or_mask  = mask;
    15a6:	78 2f       	mov	r23, r24
  bit_pos &= 7; 	/* ... because only the lowest 3 bits are needed */
  mask = 1;
  mask <<= bit_pos;

  or_mask = 0;
  xor_mask = 0;
    15a8:	c0 e0       	ldi	r28, 0x00	; 0
    or_mask  = mask;
  if ( u8g2->draw_color != 1 )
    xor_mask = mask;


  offset = y;		/* y might be 8 or 16 bit, but we need 16 bit, so use a 16 bit variable */
    15aa:	50 e0       	ldi	r21, 0x00	; 0
  offset &= ~7;
    15ac:	48 7f       	andi	r20, 0xF8	; 248
  offset *= u8g2_GetU8x8(u8g2)->display_info->tile_width;
  ptr = u8g2->tile_buf_ptr;
    15ae:	d7 01       	movw	r26, r14
    15b0:	93 96       	adiw	r26, 0x23	; 35
    15b2:	8d 91       	ld	r24, X+
    15b4:	9c 91       	ld	r25, X
    15b6:	94 97       	sbiw	r26, 0x24	; 36
    xor_mask = mask;


  offset = y;		/* y might be 8 or 16 bit, but we need 16 bit, so use a 16 bit variable */
  offset &= ~7;
  offset *= u8g2_GetU8x8(u8g2)->display_info->tile_width;
    15b8:	ed 91       	ld	r30, X+
    15ba:	fc 91       	ld	r31, X
  ptr = u8g2->tile_buf_ptr;
  ptr += offset;
  ptr += x;
    15bc:	d0 89       	ldd	r29, Z+16	; 0x10
    15be:	d4 9f       	mul	r29, r20
    15c0:	f0 01       	movw	r30, r0
    15c2:	d5 9f       	mul	r29, r21
    15c4:	f0 0d       	add	r31, r0
    15c6:	11 24       	eor	r1, r1
    15c8:	e6 0f       	add	r30, r22
    15ca:	f1 1d       	adc	r31, r1
    15cc:	e8 0f       	add	r30, r24
    15ce:	f9 1f       	adc	r31, r25
  
  if ( dir == 0 )
    15d0:	01 11       	cpse	r16, r1
    15d2:	07 c0       	rjmp	.+14     	; 0x15e2 <u8g2_ll_hvline_vertical_top_lsb+0x76>
      {
#ifdef __unix
	assert(ptr < max_ptr);
#endif
	*ptr |= or_mask;
	*ptr ^= xor_mask;
    15d4:	80 81       	ld	r24, Z
    15d6:	87 2b       	or	r24, r23
    15d8:	8c 27       	eor	r24, r28
    15da:	81 93       	st	Z+, r24
	ptr++;
	len--;
    15dc:	21 50       	subi	r18, 0x01	; 1
      } while( len != 0 );
    15de:	d1 f7       	brne	.-12     	; 0x15d4 <u8g2_ll_hvline_vertical_top_lsb+0x68>
    15e0:	22 c0       	rjmp	.+68     	; 0x1626 <u8g2_ll_hvline_vertical_top_lsb+0xba>

      if ( bit_pos == 0 )
      {
	ptr+=u8g2->pixel_buf_width;	/* 6 Jan 17: Changed u8g2->width to u8g2->pixel_buf_width, issue #148 */
		
	if ( u8g2->draw_color <= 1 )
    15e2:	a7 01       	movw	r20, r14
    15e4:	4c 59       	subi	r20, 0x9C	; 156
    15e6:	5f 4f       	sbci	r21, 0xFF	; 255
    {
#ifdef __unix
      assert(ptr < max_ptr);
#endif
      *ptr |= or_mask;
      *ptr ^= xor_mask;
    15e8:	90 81       	ld	r25, Z
    15ea:	97 2b       	or	r25, r23
    15ec:	9c 27       	eor	r25, r28
    15ee:	90 83       	st	Z, r25
      
      bit_pos++;
    15f0:	3f 5f       	subi	r19, 0xFF	; 255
      bit_pos &= 7;
    15f2:	37 70       	andi	r19, 0x07	; 7

      len--;
    15f4:	21 50       	subi	r18, 0x01	; 1

      if ( bit_pos == 0 )
    15f6:	31 11       	cpse	r19, r1
    15f8:	0e c0       	rjmp	.+28     	; 0x1616 <u8g2_ll_hvline_vertical_top_lsb+0xaa>
      {
	ptr+=u8g2->pixel_buf_width;	/* 6 Jan 17: Changed u8g2->width to u8g2->pixel_buf_width, issue #148 */
    15fa:	d7 01       	movw	r26, r14
    15fc:	97 96       	adiw	r26, 0x27	; 39
    15fe:	8c 91       	ld	r24, X
    1600:	e8 0f       	add	r30, r24
    1602:	f1 1d       	adc	r31, r1
		
	if ( u8g2->draw_color <= 1 )
    1604:	da 01       	movw	r26, r20
    1606:	8c 91       	ld	r24, X
    1608:	82 30       	cpi	r24, 0x02	; 2
    160a:	40 f4       	brcc	.+16     	; 0x161c <u8g2_ll_hvline_vertical_top_lsb+0xb0>
	  or_mask  = 1;
	if ( u8g2->draw_color != 1 )
    160c:	81 30       	cpi	r24, 0x01	; 1
    160e:	41 f0       	breq	.+16     	; 0x1620 <u8g2_ll_hvline_vertical_top_lsb+0xb4>
	  xor_mask = 1;
    1610:	c1 e0       	ldi	r28, 0x01	; 1
      if ( bit_pos == 0 )
      {
	ptr+=u8g2->pixel_buf_width;	/* 6 Jan 17: Changed u8g2->width to u8g2->pixel_buf_width, issue #148 */
		
	if ( u8g2->draw_color <= 1 )
	  or_mask  = 1;
    1612:	71 e0       	ldi	r23, 0x01	; 1
    1614:	06 c0       	rjmp	.+12     	; 0x1622 <u8g2_ll_hvline_vertical_top_lsb+0xb6>
	if ( u8g2->draw_color != 1 )
	  xor_mask = 1;
      }
      else
      {
	or_mask <<= 1;
    1616:	77 0f       	add	r23, r23
	xor_mask <<= 1;
    1618:	cc 0f       	add	r28, r28
    161a:	03 c0       	rjmp	.+6      	; 0x1622 <u8g2_ll_hvline_vertical_top_lsb+0xb6>
	ptr+=u8g2->pixel_buf_width;	/* 6 Jan 17: Changed u8g2->width to u8g2->pixel_buf_width, issue #148 */
		
	if ( u8g2->draw_color <= 1 )
	  or_mask  = 1;
	if ( u8g2->draw_color != 1 )
	  xor_mask = 1;
    161c:	c1 e0       	ldi	r28, 0x01	; 1
    161e:	01 c0       	rjmp	.+2      	; 0x1622 <u8g2_ll_hvline_vertical_top_lsb+0xb6>
      if ( bit_pos == 0 )
      {
	ptr+=u8g2->pixel_buf_width;	/* 6 Jan 17: Changed u8g2->width to u8g2->pixel_buf_width, issue #148 */
		
	if ( u8g2->draw_color <= 1 )
	  or_mask  = 1;
    1620:	71 e0       	ldi	r23, 0x01	; 1
      else
      {
	or_mask <<= 1;
	xor_mask <<= 1;
      }
    } while( len != 0 );
    1622:	21 11       	cpse	r18, r1
    1624:	e1 cf       	rjmp	.-62     	; 0x15e8 <u8g2_ll_hvline_vertical_top_lsb+0x7c>
  }
}
    1626:	df 91       	pop	r29
    1628:	cf 91       	pop	r28
    162a:	0f 91       	pop	r16
    162c:	ff 90       	pop	r15
    162e:	ef 90       	pop	r14
    1630:	08 95       	ret

00001632 <u8g2_update_dimension_common>:
  u8g2->clip_x0 = clip_x0;
  u8g2->clip_y0 = clip_y0;
  u8g2->clip_x1 = clip_x1;
  u8g2->clip_y1 = clip_y1;
  u8g2->cb->update_page_win(u8g2);
}
    1632:	fc 01       	movw	r30, r24
    1634:	a0 81       	ld	r26, Z
    1636:	b1 81       	ldd	r27, Z+1	; 0x01
    1638:	85 a1       	ldd	r24, Z+37	; 0x25
    163a:	98 2f       	mov	r25, r24
    163c:	99 0f       	add	r25, r25
    163e:	99 0f       	add	r25, r25
    1640:	99 0f       	add	r25, r25
    1642:	90 a7       	std	Z+40, r25	; 0x28
    1644:	50 96       	adiw	r26, 0x10	; 16
    1646:	9c 91       	ld	r25, X
    1648:	50 97       	sbiw	r26, 0x10	; 16
    164a:	90 32       	cpi	r25, 0x20	; 32
    164c:	08 f0       	brcs	.+2      	; 0x1650 <u8g2_update_dimension_common+0x1e>
    164e:	9f e1       	ldi	r25, 0x1F	; 31
    1650:	99 0f       	add	r25, r25
    1652:	99 0f       	add	r25, r25
    1654:	99 0f       	add	r25, r25
    1656:	97 a3       	std	Z+39, r25	; 0x27
    1658:	46 a1       	ldd	r20, Z+38	; 0x26
    165a:	94 2f       	mov	r25, r20
    165c:	99 0f       	add	r25, r25
    165e:	99 0f       	add	r25, r25
    1660:	99 0f       	add	r25, r25
    1662:	91 a7       	std	Z+41, r25	; 0x29
    1664:	51 96       	adiw	r26, 0x11	; 17
    1666:	5c 91       	ld	r21, X
    1668:	51 97       	sbiw	r26, 0x11	; 17
    166a:	24 2f       	mov	r18, r20
    166c:	30 e0       	ldi	r19, 0x00	; 0
    166e:	28 0f       	add	r18, r24
    1670:	31 1d       	adc	r19, r1
    1672:	65 2f       	mov	r22, r21
    1674:	70 e0       	ldi	r23, 0x00	; 0
    1676:	62 17       	cp	r22, r18
    1678:	73 07       	cpc	r23, r19
    167a:	14 f4       	brge	.+4      	; 0x1680 <u8g2_update_dimension_common+0x4e>
    167c:	85 2f       	mov	r24, r21
    167e:	84 1b       	sub	r24, r20
    1680:	92 a7       	std	Z+42, r25	; 0x2a
    1682:	88 0f       	add	r24, r24
    1684:	88 0f       	add	r24, r24
    1686:	88 0f       	add	r24, r24
    1688:	89 0f       	add	r24, r25
    168a:	83 a7       	std	Z+43, r24	; 0x2b
    168c:	80 ef       	ldi	r24, 0xF0	; 240
    168e:	84 a7       	std	Z+44, r24	; 0x2c
    1690:	54 96       	adiw	r26, 0x14	; 20
    1692:	8d 91       	ld	r24, X+
    1694:	9c 91       	ld	r25, X
    1696:	55 97       	sbiw	r26, 0x15	; 21
    1698:	81 3f       	cpi	r24, 0xF1	; 241
    169a:	91 05       	cpc	r25, r1
    169c:	08 f4       	brcc	.+2      	; 0x16a0 <u8g2_update_dimension_common+0x6e>
    169e:	84 a7       	std	Z+44, r24	; 0x2c
    16a0:	56 96       	adiw	r26, 0x16	; 22
    16a2:	8c 91       	ld	r24, X
    16a4:	85 a7       	std	Z+45, r24	; 0x2d
    16a6:	08 95       	ret

000016a8 <u8g2_update_dimension_r0>:
    16a8:	0e 94 19 0b 	call	0x1632	; 0x1632 <u8g2_update_dimension_common>
    16ac:	08 95       	ret

000016ae <u8g2_apply_clip_window>:
    16ae:	0f 93       	push	r16
    16b0:	cf 93       	push	r28
    16b2:	df 93       	push	r29
    16b4:	ec 01       	movw	r28, r24
    16b6:	0d a9       	ldd	r16, Y+53	; 0x35
    16b8:	2b a9       	ldd	r18, Y+51	; 0x33
    16ba:	4c a9       	ldd	r20, Y+52	; 0x34
    16bc:	6a a9       	ldd	r22, Y+50	; 0x32
    16be:	0e 94 9b 0a 	call	0x1536	; 0x1536 <u8g2_IsIntersection>
    16c2:	81 11       	cpse	r24, r1
    16c4:	04 c0       	rjmp	.+8      	; 0x16ce <u8g2_apply_clip_window+0x20>
    16c6:	c2 5a       	subi	r28, 0xA2	; 162
    16c8:	df 4f       	sbci	r29, 0xFF	; 255
    16ca:	18 82       	st	Y, r1
    16cc:	19 c0       	rjmp	.+50     	; 0x1700 <u8g2_apply_clip_window+0x52>
    16ce:	81 e0       	ldi	r24, 0x01	; 1
    16d0:	fe 01       	movw	r30, r28
    16d2:	e2 5a       	subi	r30, 0xA2	; 162
    16d4:	ff 4f       	sbci	r31, 0xFF	; 255
    16d6:	80 83       	st	Z, r24
    16d8:	8a a9       	ldd	r24, Y+50	; 0x32
    16da:	9e a5       	ldd	r25, Y+46	; 0x2e
    16dc:	98 17       	cp	r25, r24
    16de:	08 f4       	brcc	.+2      	; 0x16e2 <u8g2_apply_clip_window+0x34>
    16e0:	8e a7       	std	Y+46, r24	; 0x2e
    16e2:	8b a9       	ldd	r24, Y+51	; 0x33
    16e4:	9f a5       	ldd	r25, Y+47	; 0x2f
    16e6:	89 17       	cp	r24, r25
    16e8:	08 f4       	brcc	.+2      	; 0x16ec <u8g2_apply_clip_window+0x3e>
    16ea:	8f a7       	std	Y+47, r24	; 0x2f
    16ec:	8c a9       	ldd	r24, Y+52	; 0x34
    16ee:	98 a9       	ldd	r25, Y+48	; 0x30
    16f0:	98 17       	cp	r25, r24
    16f2:	08 f4       	brcc	.+2      	; 0x16f6 <u8g2_apply_clip_window+0x48>
    16f4:	88 ab       	std	Y+48, r24	; 0x30
    16f6:	8d a9       	ldd	r24, Y+53	; 0x35
    16f8:	99 a9       	ldd	r25, Y+49	; 0x31
    16fa:	89 17       	cp	r24, r25
    16fc:	08 f4       	brcc	.+2      	; 0x1700 <u8g2_apply_clip_window+0x52>
    16fe:	89 ab       	std	Y+49, r24	; 0x31
    1700:	df 91       	pop	r29
    1702:	cf 91       	pop	r28
    1704:	0f 91       	pop	r16
    1706:	08 95       	ret

00001708 <u8g2_update_page_win_r0>:
    1708:	fc 01       	movw	r30, r24
    170a:	16 a6       	std	Z+46, r1	; 0x2e
    170c:	84 a5       	ldd	r24, Z+44	; 0x2c
    170e:	87 a7       	std	Z+47, r24	; 0x2f
    1710:	82 a5       	ldd	r24, Z+42	; 0x2a
    1712:	80 ab       	std	Z+48, r24	; 0x30
    1714:	83 a5       	ldd	r24, Z+43	; 0x2b
    1716:	81 ab       	std	Z+49, r24	; 0x31
    1718:	cf 01       	movw	r24, r30
    171a:	0e 94 57 0b 	call	0x16ae	; 0x16ae <u8g2_apply_clip_window>
    171e:	08 95       	ret

00001720 <u8g2_draw_l90_r0>:
    1720:	0f 93       	push	r16
    1722:	0e 94 0b 0a 	call	0x1416	; 0x1416 <u8g2_draw_hv_line_2dir>
    1726:	0f 91       	pop	r16
    1728:	08 95       	ret

0000172a <u8g2_SetMaxClipWindow>:
    172a:	dc 01       	movw	r26, r24
    172c:	d2 96       	adiw	r26, 0x32	; 50
    172e:	1c 92       	st	X, r1
    1730:	d2 97       	sbiw	r26, 0x32	; 50
    1732:	d4 96       	adiw	r26, 0x34	; 52
    1734:	1c 92       	st	X, r1
    1736:	d4 97       	sbiw	r26, 0x34	; 52
    1738:	8f ef       	ldi	r24, 0xFF	; 255
    173a:	d3 96       	adiw	r26, 0x33	; 51
    173c:	8c 93       	st	X, r24
    173e:	d3 97       	sbiw	r26, 0x33	; 51
    1740:	d5 96       	adiw	r26, 0x35	; 53
    1742:	8c 93       	st	X, r24
    1744:	d5 97       	sbiw	r26, 0x35	; 53
    1746:	91 96       	adiw	r26, 0x21	; 33
    1748:	ed 91       	ld	r30, X+
    174a:	fc 91       	ld	r31, X
    174c:	92 97       	sbiw	r26, 0x22	; 34
    174e:	02 80       	ldd	r0, Z+2	; 0x02
    1750:	f3 81       	ldd	r31, Z+3	; 0x03
    1752:	e0 2d       	mov	r30, r0
    1754:	cd 01       	movw	r24, r26
    1756:	09 95       	icall
    1758:	08 95       	ret

0000175a <u8g2_SetupBuffer>:
/*
  This procedure is called after setting up the display (u8x8 structure).
  --> This is the central init procedure for u8g2 object
*/
void u8g2_SetupBuffer(u8g2_t *u8g2, uint8_t *buf, uint8_t tile_buf_height, u8g2_draw_ll_hvline_cb ll_hvline_cb, const u8g2_cb_t *u8g2_cb)
{
    175a:	0f 93       	push	r16
    175c:	1f 93       	push	r17
    175e:	cf 93       	push	r28
    1760:	df 93       	push	r29
    1762:	ec 01       	movw	r28, r24
  u8g2->font = NULL;
    1764:	1f aa       	std	Y+55, r1	; 0x37
    1766:	1e aa       	std	Y+54, r1	; 0x36
  //u8g2->kerning = NULL;
  //u8g2->get_kerning_cb = u8g2_GetNullKerning;
  
  //u8g2->ll_hvline = u8g2_ll_hvline_vertical_top_lsb;
  u8g2->ll_hvline = ll_hvline_cb;
    1768:	38 a3       	std	Y+32, r19	; 0x20
    176a:	2f 8f       	std	Y+31, r18	; 0x1f
  
  u8g2->tile_buf_ptr = buf;
    176c:	7c a3       	std	Y+36, r23	; 0x24
    176e:	6b a3       	std	Y+35, r22	; 0x23
  u8g2->tile_buf_height = tile_buf_height;
    1770:	4d a3       	std	Y+37, r20	; 0x25
  
  u8g2->tile_curr_row = 0;
    1772:	1e a2       	std	Y+38, r1	; 0x26
  
  u8g2->font_decode.is_transparent = 0; /* issue 443 */
    1774:	fc 01       	movw	r30, r24
    1776:	ed 5b       	subi	r30, 0xBD	; 189
    1778:	ff 4f       	sbci	r31, 0xFF	; 255
    177a:	10 82       	st	Z, r1
  u8g2->bitmap_transparency = 0;
    177c:	b0 96       	adiw	r30, 0x20	; 32
    177e:	10 82       	st	Z, r1
  
  u8g2->draw_color = 1;
    1780:	31 96       	adiw	r30, 0x01	; 1
    1782:	81 e0       	ldi	r24, 0x01	; 1
    1784:	80 83       	st	Z, r24
  u8g2->is_auto_page_clear = 1;
    1786:	31 96       	adiw	r30, 0x01	; 1
    1788:	80 83       	st	Z, r24
  
  u8g2->cb = u8g2_cb;
    178a:	1a a3       	std	Y+34, r17	; 0x22
    178c:	09 a3       	std	Y+33, r16	; 0x21
  u8g2->cb->update_dimension(u8g2);
    178e:	d8 01       	movw	r26, r16
    1790:	ed 91       	ld	r30, X+
    1792:	fc 91       	ld	r31, X
    1794:	ce 01       	movw	r24, r28
    1796:	09 95       	icall
#ifdef U8G2_WITH_CLIP_WINDOW_SUPPORT
  u8g2_SetMaxClipWindow(u8g2);		/* assign a clip window and call the update() procedure */
    1798:	ce 01       	movw	r24, r28
    179a:	0e 94 95 0b 	call	0x172a	; 0x172a <u8g2_SetMaxClipWindow>
#else
  u8g2->cb->update_page_win(u8g2);
#endif

  u8g2_SetFontPosBaseline(u8g2);  /* issue 195 */
    179e:	ce 01       	movw	r24, r28
    17a0:	0e 94 f0 09 	call	0x13e0	; 0x13e0 <u8g2_SetFontPosBaseline>
  
#ifdef U8G2_WITH_FONT_ROTATION  
  u8g2->font_decode.dir = 0;
    17a4:	ca 5b       	subi	r28, 0xBA	; 186
    17a6:	df 4f       	sbci	r29, 0xFF	; 255
    17a8:	18 82       	st	Y, r1
#endif
}
    17aa:	df 91       	pop	r29
    17ac:	cf 91       	pop	r28
    17ae:	1f 91       	pop	r17
    17b0:	0f 91       	pop	r16
    17b2:	08 95       	ret

000017b4 <u8x8_ascii_next>:
      x++;
      cnt++;
    }
  }
  return cnt;
}
    17b4:	66 23       	and	r22, r22
    17b6:	29 f0       	breq	.+10     	; 0x17c2 <u8x8_ascii_next+0xe>
    17b8:	6a 30       	cpi	r22, 0x0A	; 10
    17ba:	31 f0       	breq	.+12     	; 0x17c8 <u8x8_ascii_next+0x14>
    17bc:	86 2f       	mov	r24, r22
    17be:	90 e0       	ldi	r25, 0x00	; 0
    17c0:	08 95       	ret
    17c2:	8f ef       	ldi	r24, 0xFF	; 255
    17c4:	9f ef       	ldi	r25, 0xFF	; 255
    17c6:	08 95       	ret
    17c8:	8f ef       	ldi	r24, 0xFF	; 255
    17ca:	9f ef       	ldi	r25, 0xFF	; 255
    17cc:	08 95       	ret

000017ce <u8x8_utf8_init>:
*/

/* reset the internal state machine */
void u8x8_utf8_init(u8x8_t *u8x8)
{
  u8x8->utf8_state = 0;	/* also reset during u8x8_SetupDefaults() */
    17ce:	fc 01       	movw	r30, r24
    17d0:	11 8e       	std	Z+25, r1	; 0x19
    17d2:	08 95       	ret

000017d4 <u8x8_byte_SetDC>:
    case U8X8_MSG_BYTE_START_TRANSFER:
    case U8X8_MSG_BYTE_END_TRANSFER:
      break;	/* do nothing */
  }
  return 1;	/* always succeed */
}
    17d4:	46 2f       	mov	r20, r22
    17d6:	dc 01       	movw	r26, r24
    17d8:	18 96       	adiw	r26, 0x08	; 8
    17da:	ed 91       	ld	r30, X+
    17dc:	fc 91       	ld	r31, X
    17de:	19 97       	sbiw	r26, 0x09	; 9
    17e0:	20 e0       	ldi	r18, 0x00	; 0
    17e2:	30 e0       	ldi	r19, 0x00	; 0
    17e4:	60 e2       	ldi	r22, 0x20	; 32
    17e6:	09 95       	icall
    17e8:	08 95       	ret

000017ea <u8x8_byte_SendBytes>:
    17ea:	9a 01       	movw	r18, r20
    17ec:	dc 01       	movw	r26, r24
    17ee:	18 96       	adiw	r26, 0x08	; 8
    17f0:	ed 91       	ld	r30, X+
    17f2:	fc 91       	ld	r31, X
    17f4:	19 97       	sbiw	r26, 0x09	; 9
    17f6:	46 2f       	mov	r20, r22
    17f8:	67 e1       	ldi	r22, 0x17	; 23
    17fa:	09 95       	icall
    17fc:	08 95       	ret

000017fe <u8x8_byte_SendByte>:
    17fe:	cf 93       	push	r28
    1800:	df 93       	push	r29
    1802:	1f 92       	push	r1
    1804:	cd b7       	in	r28, 0x3d	; 61
    1806:	de b7       	in	r29, 0x3e	; 62
    1808:	69 83       	std	Y+1, r22	; 0x01
    180a:	ae 01       	movw	r20, r28
    180c:	4f 5f       	subi	r20, 0xFF	; 255
    180e:	5f 4f       	sbci	r21, 0xFF	; 255
    1810:	61 e0       	ldi	r22, 0x01	; 1
    1812:	0e 94 f5 0b 	call	0x17ea	; 0x17ea <u8x8_byte_SendBytes>
    1816:	0f 90       	pop	r0
    1818:	df 91       	pop	r29
    181a:	cf 91       	pop	r28
    181c:	08 95       	ret

0000181e <u8x8_byte_4wire_sw_spi>:
    U8X8_MSG_BYTE_START_TRANSFER
    U8X8_MSG_BYTE_END_TRANSFER
*/

uint8_t u8x8_byte_4wire_sw_spi(u8x8_t *u8x8, uint8_t msg, uint8_t arg_int, void *arg_ptr)
{
    181e:	9f 92       	push	r9
    1820:	af 92       	push	r10
    1822:	bf 92       	push	r11
    1824:	cf 92       	push	r12
    1826:	df 92       	push	r13
    1828:	ef 92       	push	r14
    182a:	ff 92       	push	r15
    182c:	0f 93       	push	r16
    182e:	1f 93       	push	r17
    1830:	cf 93       	push	r28
    1832:	df 93       	push	r29
    1834:	ec 01       	movw	r28, r24
    1836:	79 01       	movw	r14, r18
  uint8_t i, b;
  uint8_t *data;
  uint8_t takeover_edge = u8x8_GetSPIClockPhase(u8x8);
    1838:	a8 81       	ld	r26, Y
    183a:	b9 81       	ldd	r27, Y+1	; 0x01
  uint8_t not_takeover_edge = 1 - takeover_edge;
 
  switch(msg)
    183c:	68 31       	cpi	r22, 0x18	; 24
    183e:	09 f4       	brne	.+2      	; 0x1842 <u8x8_byte_4wire_sw_spi+0x24>
    1840:	67 c0       	rjmp	.+206    	; 0x1910 <u8x8_byte_4wire_sw_spi+0xf2>
    1842:	30 f4       	brcc	.+12     	; 0x1850 <u8x8_byte_4wire_sw_spi+0x32>
    1844:	64 31       	cpi	r22, 0x14	; 20
    1846:	09 f4       	brne	.+2      	; 0x184a <u8x8_byte_4wire_sw_spi+0x2c>
    1848:	4f c0       	rjmp	.+158    	; 0x18e8 <u8x8_byte_4wire_sw_spi+0xca>
    184a:	67 31       	cpi	r22, 0x17	; 23
    184c:	c9 f1       	breq	.+114    	; 0x18c0 <u8x8_byte_4wire_sw_spi+0xa2>
    184e:	82 c0       	rjmp	.+260    	; 0x1954 <u8x8_byte_4wire_sw_spi+0x136>
    1850:	69 31       	cpi	r22, 0x19	; 25
    1852:	09 f4       	brne	.+2      	; 0x1856 <u8x8_byte_4wire_sw_spi+0x38>
    1854:	6e c0       	rjmp	.+220    	; 0x1932 <u8x8_byte_4wire_sw_spi+0x114>
    1856:	60 32       	cpi	r22, 0x20	; 32
    1858:	09 f4       	brne	.+2      	; 0x185c <u8x8_byte_4wire_sw_spi+0x3e>
    185a:	55 c0       	rjmp	.+170    	; 0x1906 <u8x8_byte_4wire_sw_spi+0xe8>
    185c:	7b c0       	rjmp	.+246    	; 0x1954 <u8x8_byte_4wire_sw_spi+0x136>
  {
    case U8X8_MSG_BYTE_SEND:
      data = (uint8_t *)arg_ptr;
      while( arg_int > 0 )
      {
	b = *data;
    185e:	f7 01       	movw	r30, r14
    1860:	01 91       	ld	r16, Z+
    1862:	7f 01       	movw	r14, r30
	data++;
    1864:	18 e0       	ldi	r17, 0x08	; 8
	arg_int--;
	for( i = 0; i < 8; i++ )
	{
	  if ( b & 128 )
    1866:	00 23       	and	r16, r16
    1868:	34 f4       	brge	.+12     	; 0x1876 <u8x8_byte_4wire_sw_spi+0x58>
	    u8x8_gpio_SetSPIData(u8x8, 1);
    186a:	49 2d       	mov	r20, r9
    186c:	61 e4       	ldi	r22, 0x41	; 65
    186e:	ce 01       	movw	r24, r28
    1870:	0e 94 bd 0e 	call	0x1d7a	; 0x1d7a <u8x8_gpio_call>
    1874:	05 c0       	rjmp	.+10     	; 0x1880 <u8x8_byte_4wire_sw_spi+0x62>
	  else
	    u8x8_gpio_SetSPIData(u8x8, 0);
    1876:	40 e0       	ldi	r20, 0x00	; 0
    1878:	61 e4       	ldi	r22, 0x41	; 65
    187a:	ce 01       	movw	r24, r28
    187c:	0e 94 bd 0e 	call	0x1d7a	; 0x1d7a <u8x8_gpio_call>
	  b <<= 1;
    1880:	00 0f       	add	r16, r16
	  
	  u8x8_gpio_SetSPIClock(u8x8, not_takeover_edge);
    1882:	4a 2d       	mov	r20, r10
    1884:	60 e4       	ldi	r22, 0x40	; 64
    1886:	ce 01       	movw	r24, r28
    1888:	0e 94 bd 0e 	call	0x1d7a	; 0x1d7a <u8x8_gpio_call>
	  u8x8_gpio_Delay(u8x8, U8X8_MSG_DELAY_NANO, u8x8->display_info->sda_setup_time_ns);
    188c:	e8 81       	ld	r30, Y
    188e:	f9 81       	ldd	r31, Y+1	; 0x01
    1890:	46 81       	ldd	r20, Z+6	; 0x06
    1892:	6c e2       	ldi	r22, 0x2C	; 44
    1894:	ce 01       	movw	r24, r28
    1896:	0e 94 bd 0e 	call	0x1d7a	; 0x1d7a <u8x8_gpio_call>
	  u8x8_gpio_SetSPIClock(u8x8, takeover_edge);
    189a:	4b 2d       	mov	r20, r11
    189c:	60 e4       	ldi	r22, 0x40	; 64
    189e:	ce 01       	movw	r24, r28
    18a0:	0e 94 bd 0e 	call	0x1d7a	; 0x1d7a <u8x8_gpio_call>
	  u8x8_gpio_Delay(u8x8, U8X8_MSG_DELAY_NANO, u8x8->display_info->sck_pulse_width_ns);
    18a4:	e8 81       	ld	r30, Y
    18a6:	f9 81       	ldd	r31, Y+1	; 0x01
    18a8:	47 81       	ldd	r20, Z+7	; 0x07
    18aa:	6c e2       	ldi	r22, 0x2C	; 44
    18ac:	ce 01       	movw	r24, r28
    18ae:	0e 94 bd 0e 	call	0x1d7a	; 0x1d7a <u8x8_gpio_call>
    18b2:	11 50       	subi	r17, 0x01	; 1
      while( arg_int > 0 )
      {
	b = *data;
	data++;
	arg_int--;
	for( i = 0; i < 8; i++ )
    18b4:	c1 f6       	brne	.-80     	; 0x1866 <u8x8_byte_4wire_sw_spi+0x48>
 
  switch(msg)
  {
    case U8X8_MSG_BYTE_SEND:
      data = (uint8_t *)arg_ptr;
      while( arg_int > 0 )
    18b6:	ce 14       	cp	r12, r14
    18b8:	df 04       	cpc	r13, r15
    18ba:	89 f6       	brne	.-94     	; 0x185e <u8x8_byte_4wire_sw_spi+0x40>
      u8x8_gpio_SetCS(u8x8, u8x8->display_info->chip_disable_level);
      break;
    default:
      return 0;
  }
  return 1;
    18bc:	81 e0       	ldi	r24, 0x01	; 1
    18be:	4d c0       	rjmp	.+154    	; 0x195a <u8x8_byte_4wire_sw_spi+0x13c>
 
  switch(msg)
  {
    case U8X8_MSG_BYTE_SEND:
      data = (uint8_t *)arg_ptr;
      while( arg_int > 0 )
    18c0:	44 23       	and	r20, r20
    18c2:	09 f4       	brne	.+2      	; 0x18c6 <u8x8_byte_4wire_sw_spi+0xa8>
    18c4:	49 c0       	rjmp	.+146    	; 0x1958 <u8x8_byte_4wire_sw_spi+0x13a>

uint8_t u8x8_byte_4wire_sw_spi(u8x8_t *u8x8, uint8_t msg, uint8_t arg_int, void *arg_ptr)
{
  uint8_t i, b;
  uint8_t *data;
  uint8_t takeover_edge = u8x8_GetSPIClockPhase(u8x8);
    18c6:	1c 96       	adiw	r26, 0x0c	; 12
    18c8:	8c 91       	ld	r24, X
    18ca:	81 70       	andi	r24, 0x01	; 1
    18cc:	b8 2e       	mov	r11, r24
    18ce:	41 50       	subi	r20, 0x01	; 1
    18d0:	c4 2e       	mov	r12, r20
    18d2:	d1 2c       	mov	r13, r1
    18d4:	ff ef       	ldi	r31, 0xFF	; 255
    18d6:	cf 1a       	sub	r12, r31
    18d8:	df 0a       	sbc	r13, r31
    18da:	c2 0e       	add	r12, r18
    18dc:	d3 1e       	adc	r13, r19
	data++;
	arg_int--;
	for( i = 0; i < 8; i++ )
	{
	  if ( b & 128 )
	    u8x8_gpio_SetSPIData(u8x8, 1);
    18de:	99 24       	eor	r9, r9
    18e0:	93 94       	inc	r9
	  else
	    u8x8_gpio_SetSPIData(u8x8, 0);
	  b <<= 1;
	  
	  u8x8_gpio_SetSPIClock(u8x8, not_takeover_edge);
    18e2:	a9 2c       	mov	r10, r9
    18e4:	a8 1a       	sub	r10, r24
    18e6:	bb cf       	rjmp	.-138    	; 0x185e <u8x8_byte_4wire_sw_spi+0x40>
      }
      break;
      
    case U8X8_MSG_BYTE_INIT:
      /* disable chipselect */
      u8x8_gpio_SetCS(u8x8, u8x8->display_info->chip_disable_level);
    18e8:	11 96       	adiw	r26, 0x01	; 1
    18ea:	4c 91       	ld	r20, X
    18ec:	69 e4       	ldi	r22, 0x49	; 73
    18ee:	0e 94 bd 0e 	call	0x1d7a	; 0x1d7a <u8x8_gpio_call>
      /* no wait required here */
      
      /* for SPI: setup correct level of the clock signal */
      u8x8_gpio_SetSPIClock(u8x8, u8x8_GetSPIClockPhase(u8x8));
    18f2:	e8 81       	ld	r30, Y
    18f4:	f9 81       	ldd	r31, Y+1	; 0x01
    18f6:	44 85       	ldd	r20, Z+12	; 0x0c
    18f8:	41 70       	andi	r20, 0x01	; 1
    18fa:	60 e4       	ldi	r22, 0x40	; 64
    18fc:	ce 01       	movw	r24, r28
    18fe:	0e 94 bd 0e 	call	0x1d7a	; 0x1d7a <u8x8_gpio_call>
      u8x8_gpio_SetCS(u8x8, u8x8->display_info->chip_disable_level);
      break;
    default:
      return 0;
  }
  return 1;
    1902:	81 e0       	ldi	r24, 0x01	; 1
      u8x8_gpio_SetCS(u8x8, u8x8->display_info->chip_disable_level);
      /* no wait required here */
      
      /* for SPI: setup correct level of the clock signal */
      u8x8_gpio_SetSPIClock(u8x8, u8x8_GetSPIClockPhase(u8x8));
      break;
    1904:	2a c0       	rjmp	.+84     	; 0x195a <u8x8_byte_4wire_sw_spi+0x13c>
    case U8X8_MSG_BYTE_SET_DC:
      u8x8_gpio_SetDC(u8x8, arg_int);
    1906:	6a e4       	ldi	r22, 0x4A	; 74
    1908:	0e 94 bd 0e 	call	0x1d7a	; 0x1d7a <u8x8_gpio_call>
      u8x8_gpio_SetCS(u8x8, u8x8->display_info->chip_disable_level);
      break;
    default:
      return 0;
  }
  return 1;
    190c:	81 e0       	ldi	r24, 0x01	; 1
      /* for SPI: setup correct level of the clock signal */
      u8x8_gpio_SetSPIClock(u8x8, u8x8_GetSPIClockPhase(u8x8));
      break;
    case U8X8_MSG_BYTE_SET_DC:
      u8x8_gpio_SetDC(u8x8, arg_int);
      break;
    190e:	25 c0       	rjmp	.+74     	; 0x195a <u8x8_byte_4wire_sw_spi+0x13c>
    case U8X8_MSG_BYTE_START_TRANSFER:
      u8x8_gpio_SetCS(u8x8, u8x8->display_info->chip_enable_level);  
    1910:	4c 91       	ld	r20, X
    1912:	69 e4       	ldi	r22, 0x49	; 73
    1914:	0e 94 bd 0e 	call	0x1d7a	; 0x1d7a <u8x8_gpio_call>
      u8x8->gpio_and_delay_cb(u8x8, U8X8_MSG_DELAY_NANO, u8x8->display_info->post_chip_enable_wait_ns, NULL);
    1918:	a8 81       	ld	r26, Y
    191a:	b9 81       	ldd	r27, Y+1	; 0x01
    191c:	ea 85       	ldd	r30, Y+10	; 0x0a
    191e:	fb 85       	ldd	r31, Y+11	; 0x0b
    1920:	20 e0       	ldi	r18, 0x00	; 0
    1922:	30 e0       	ldi	r19, 0x00	; 0
    1924:	12 96       	adiw	r26, 0x02	; 2
    1926:	4c 91       	ld	r20, X
    1928:	6c e2       	ldi	r22, 0x2C	; 44
    192a:	ce 01       	movw	r24, r28
    192c:	09 95       	icall
      u8x8_gpio_SetCS(u8x8, u8x8->display_info->chip_disable_level);
      break;
    default:
      return 0;
  }
  return 1;
    192e:	81 e0       	ldi	r24, 0x01	; 1
      u8x8_gpio_SetDC(u8x8, arg_int);
      break;
    case U8X8_MSG_BYTE_START_TRANSFER:
      u8x8_gpio_SetCS(u8x8, u8x8->display_info->chip_enable_level);  
      u8x8->gpio_and_delay_cb(u8x8, U8X8_MSG_DELAY_NANO, u8x8->display_info->post_chip_enable_wait_ns, NULL);
      break;
    1930:	14 c0       	rjmp	.+40     	; 0x195a <u8x8_byte_4wire_sw_spi+0x13c>
    case U8X8_MSG_BYTE_END_TRANSFER:
      u8x8->gpio_and_delay_cb(u8x8, U8X8_MSG_DELAY_NANO, u8x8->display_info->pre_chip_disable_wait_ns, NULL);
    1932:	ea 85       	ldd	r30, Y+10	; 0x0a
    1934:	fb 85       	ldd	r31, Y+11	; 0x0b
    1936:	20 e0       	ldi	r18, 0x00	; 0
    1938:	30 e0       	ldi	r19, 0x00	; 0
    193a:	13 96       	adiw	r26, 0x03	; 3
    193c:	4c 91       	ld	r20, X
    193e:	6c e2       	ldi	r22, 0x2C	; 44
    1940:	09 95       	icall
      u8x8_gpio_SetCS(u8x8, u8x8->display_info->chip_disable_level);
    1942:	e8 81       	ld	r30, Y
    1944:	f9 81       	ldd	r31, Y+1	; 0x01
    1946:	41 81       	ldd	r20, Z+1	; 0x01
    1948:	69 e4       	ldi	r22, 0x49	; 73
    194a:	ce 01       	movw	r24, r28
    194c:	0e 94 bd 0e 	call	0x1d7a	; 0x1d7a <u8x8_gpio_call>
      break;
    default:
      return 0;
  }
  return 1;
    1950:	81 e0       	ldi	r24, 0x01	; 1
      u8x8->gpio_and_delay_cb(u8x8, U8X8_MSG_DELAY_NANO, u8x8->display_info->post_chip_enable_wait_ns, NULL);
      break;
    case U8X8_MSG_BYTE_END_TRANSFER:
      u8x8->gpio_and_delay_cb(u8x8, U8X8_MSG_DELAY_NANO, u8x8->display_info->pre_chip_disable_wait_ns, NULL);
      u8x8_gpio_SetCS(u8x8, u8x8->display_info->chip_disable_level);
      break;
    1952:	03 c0       	rjmp	.+6      	; 0x195a <u8x8_byte_4wire_sw_spi+0x13c>
    default:
      return 0;
    1954:	80 e0       	ldi	r24, 0x00	; 0
    1956:	01 c0       	rjmp	.+2      	; 0x195a <u8x8_byte_4wire_sw_spi+0x13c>
  }
  return 1;
    1958:	81 e0       	ldi	r24, 0x01	; 1
}
    195a:	df 91       	pop	r29
    195c:	cf 91       	pop	r28
    195e:	1f 91       	pop	r17
    1960:	0f 91       	pop	r16
    1962:	ff 90       	pop	r15
    1964:	ef 90       	pop	r14
    1966:	df 90       	pop	r13
    1968:	cf 90       	pop	r12
    196a:	bf 90       	pop	r11
    196c:	af 90       	pop	r10
    196e:	9f 90       	pop	r9
    1970:	08 95       	ret

00001972 <u8x8_cad_SendCmd>:
      return u8x8->byte_cb(u8x8, msg, arg_int, arg_ptr);
    default:
      return 0;
  }
  return 1;
}
    1972:	46 2f       	mov	r20, r22
    1974:	dc 01       	movw	r26, r24
    1976:	16 96       	adiw	r26, 0x06	; 6
    1978:	ed 91       	ld	r30, X+
    197a:	fc 91       	ld	r31, X
    197c:	17 97       	sbiw	r26, 0x07	; 7
    197e:	20 e0       	ldi	r18, 0x00	; 0
    1980:	30 e0       	ldi	r19, 0x00	; 0
    1982:	65 e1       	ldi	r22, 0x15	; 21
    1984:	09 95       	icall
    1986:	08 95       	ret

00001988 <u8x8_cad_SendArg>:
    1988:	46 2f       	mov	r20, r22
    198a:	dc 01       	movw	r26, r24
    198c:	16 96       	adiw	r26, 0x06	; 6
    198e:	ed 91       	ld	r30, X+
    1990:	fc 91       	ld	r31, X
    1992:	17 97       	sbiw	r26, 0x07	; 7
    1994:	20 e0       	ldi	r18, 0x00	; 0
    1996:	30 e0       	ldi	r19, 0x00	; 0
    1998:	66 e1       	ldi	r22, 0x16	; 22
    199a:	09 95       	icall
    199c:	08 95       	ret

0000199e <u8x8_cad_SendData>:
    199e:	9a 01       	movw	r18, r20
    19a0:	dc 01       	movw	r26, r24
    19a2:	16 96       	adiw	r26, 0x06	; 6
    19a4:	ed 91       	ld	r30, X+
    19a6:	fc 91       	ld	r31, X
    19a8:	17 97       	sbiw	r26, 0x07	; 7
    19aa:	46 2f       	mov	r20, r22
    19ac:	67 e1       	ldi	r22, 0x17	; 23
    19ae:	09 95       	icall
    19b0:	08 95       	ret

000019b2 <u8x8_cad_StartTransfer>:
    19b2:	dc 01       	movw	r26, r24
    19b4:	16 96       	adiw	r26, 0x06	; 6
    19b6:	ed 91       	ld	r30, X+
    19b8:	fc 91       	ld	r31, X
    19ba:	17 97       	sbiw	r26, 0x07	; 7
    19bc:	20 e0       	ldi	r18, 0x00	; 0
    19be:	30 e0       	ldi	r19, 0x00	; 0
    19c0:	40 e0       	ldi	r20, 0x00	; 0
    19c2:	68 e1       	ldi	r22, 0x18	; 24
    19c4:	09 95       	icall
    19c6:	08 95       	ret

000019c8 <u8x8_cad_EndTransfer>:
    19c8:	dc 01       	movw	r26, r24
    19ca:	16 96       	adiw	r26, 0x06	; 6
    19cc:	ed 91       	ld	r30, X+
    19ce:	fc 91       	ld	r31, X
    19d0:	17 97       	sbiw	r26, 0x07	; 7
    19d2:	20 e0       	ldi	r18, 0x00	; 0
    19d4:	30 e0       	ldi	r19, 0x00	; 0
    19d6:	40 e0       	ldi	r20, 0x00	; 0
    19d8:	69 e1       	ldi	r22, 0x19	; 25
    19da:	09 95       	icall
    19dc:	08 95       	ret

000019de <u8x8_cad_SendSequence>:
    19de:	ef 92       	push	r14
    19e0:	ff 92       	push	r15
    19e2:	0f 93       	push	r16
    19e4:	1f 93       	push	r17
    19e6:	cf 93       	push	r28
    19e8:	df 93       	push	r29
    19ea:	1f 92       	push	r1
    19ec:	cd b7       	in	r28, 0x3d	; 61
    19ee:	de b7       	in	r29, 0x3e	; 62
    19f0:	7c 01       	movw	r14, r24
    19f2:	8b 01       	movw	r16, r22
    19f4:	d8 01       	movw	r26, r16
    19f6:	6c 91       	ld	r22, X
    19f8:	67 31       	cpi	r22, 0x17	; 23
    19fa:	c1 f0       	breq	.+48     	; 0x1a2c <u8x8_cad_SendSequence+0x4e>
    19fc:	18 f4       	brcc	.+6      	; 0x1a04 <u8x8_cad_SendSequence+0x26>
    19fe:	65 31       	cpi	r22, 0x15	; 21
    1a00:	30 f4       	brcc	.+12     	; 0x1a0e <u8x8_cad_SendSequence+0x30>
    1a02:	38 c0       	rjmp	.+112    	; 0x1a74 <u8x8_cad_SendSequence+0x96>
    1a04:	6a 31       	cpi	r22, 0x1A	; 26
    1a06:	f8 f0       	brcs	.+62     	; 0x1a46 <u8x8_cad_SendSequence+0x68>
    1a08:	6e 3f       	cpi	r22, 0xFE	; 254
    1a0a:	51 f1       	breq	.+84     	; 0x1a60 <u8x8_cad_SendSequence+0x82>
    1a0c:	33 c0       	rjmp	.+102    	; 0x1a74 <u8x8_cad_SendSequence+0x96>
    1a0e:	f8 01       	movw	r30, r16
    1a10:	41 81       	ldd	r20, Z+1	; 0x01
    1a12:	49 83       	std	Y+1, r20	; 0x01
    1a14:	d7 01       	movw	r26, r14
    1a16:	16 96       	adiw	r26, 0x06	; 6
    1a18:	ed 91       	ld	r30, X+
    1a1a:	fc 91       	ld	r31, X
    1a1c:	17 97       	sbiw	r26, 0x07	; 7
    1a1e:	20 e0       	ldi	r18, 0x00	; 0
    1a20:	30 e0       	ldi	r19, 0x00	; 0
    1a22:	c7 01       	movw	r24, r14
    1a24:	09 95       	icall
    1a26:	0e 5f       	subi	r16, 0xFE	; 254
    1a28:	1f 4f       	sbci	r17, 0xFF	; 255
    1a2a:	e4 cf       	rjmp	.-56     	; 0x19f4 <u8x8_cad_SendSequence+0x16>
    1a2c:	f8 01       	movw	r30, r16
    1a2e:	81 81       	ldd	r24, Z+1	; 0x01
    1a30:	89 83       	std	Y+1, r24	; 0x01
    1a32:	ae 01       	movw	r20, r28
    1a34:	4f 5f       	subi	r20, 0xFF	; 255
    1a36:	5f 4f       	sbci	r21, 0xFF	; 255
    1a38:	61 e0       	ldi	r22, 0x01	; 1
    1a3a:	c7 01       	movw	r24, r14
    1a3c:	0e 94 cf 0c 	call	0x199e	; 0x199e <u8x8_cad_SendData>
    1a40:	0e 5f       	subi	r16, 0xFE	; 254
    1a42:	1f 4f       	sbci	r17, 0xFF	; 255
    1a44:	d7 cf       	rjmp	.-82     	; 0x19f4 <u8x8_cad_SendSequence+0x16>
    1a46:	0f 5f       	subi	r16, 0xFF	; 255
    1a48:	1f 4f       	sbci	r17, 0xFF	; 255
    1a4a:	d7 01       	movw	r26, r14
    1a4c:	16 96       	adiw	r26, 0x06	; 6
    1a4e:	ed 91       	ld	r30, X+
    1a50:	fc 91       	ld	r31, X
    1a52:	17 97       	sbiw	r26, 0x07	; 7
    1a54:	20 e0       	ldi	r18, 0x00	; 0
    1a56:	30 e0       	ldi	r19, 0x00	; 0
    1a58:	40 e0       	ldi	r20, 0x00	; 0
    1a5a:	c7 01       	movw	r24, r14
    1a5c:	09 95       	icall
    1a5e:	ca cf       	rjmp	.-108    	; 0x19f4 <u8x8_cad_SendSequence+0x16>
    1a60:	f8 01       	movw	r30, r16
    1a62:	41 81       	ldd	r20, Z+1	; 0x01
    1a64:	49 83       	std	Y+1, r20	; 0x01
    1a66:	69 e2       	ldi	r22, 0x29	; 41
    1a68:	c7 01       	movw	r24, r14
    1a6a:	0e 94 bd 0e 	call	0x1d7a	; 0x1d7a <u8x8_gpio_call>
    1a6e:	0e 5f       	subi	r16, 0xFE	; 254
    1a70:	1f 4f       	sbci	r17, 0xFF	; 255
    1a72:	c0 cf       	rjmp	.-128    	; 0x19f4 <u8x8_cad_SendSequence+0x16>
    1a74:	0f 90       	pop	r0
    1a76:	df 91       	pop	r29
    1a78:	cf 91       	pop	r28
    1a7a:	1f 91       	pop	r17
    1a7c:	0f 91       	pop	r16
    1a7e:	ff 90       	pop	r15
    1a80:	ef 90       	pop	r14
    1a82:	08 95       	ret

00001a84 <u8x8_cad_001>:
  convert to bytes by using 
    dc = 0 for commands and args and
    dc = 1 for data
*/
uint8_t u8x8_cad_001(u8x8_t *u8x8, uint8_t msg, uint8_t arg_int, void *arg_ptr)
{
    1a84:	ef 92       	push	r14
    1a86:	ff 92       	push	r15
    1a88:	0f 93       	push	r16
    1a8a:	1f 93       	push	r17
    1a8c:	cf 93       	push	r28
    1a8e:	df 93       	push	r29
    1a90:	8c 01       	movw	r16, r24
    1a92:	c6 2f       	mov	r28, r22
    1a94:	d4 2f       	mov	r29, r20
    1a96:	79 01       	movw	r14, r18
  switch(msg)
    1a98:	66 31       	cpi	r22, 0x16	; 22
    1a9a:	a1 f0       	breq	.+40     	; 0x1ac4 <u8x8_cad_001+0x40>
    1a9c:	28 f4       	brcc	.+10     	; 0x1aa8 <u8x8_cad_001+0x24>
    1a9e:	64 31       	cpi	r22, 0x14	; 20
    1aa0:	e9 f0       	breq	.+58     	; 0x1adc <u8x8_cad_001+0x58>
    1aa2:	65 31       	cpi	r22, 0x15	; 21
    1aa4:	31 f0       	breq	.+12     	; 0x1ab2 <u8x8_cad_001+0x2e>
    1aa6:	25 c0       	rjmp	.+74     	; 0x1af2 <u8x8_cad_001+0x6e>
    1aa8:	67 31       	cpi	r22, 0x17	; 23
    1aaa:	a9 f0       	breq	.+42     	; 0x1ad6 <u8x8_cad_001+0x52>
    1aac:	6a 31       	cpi	r22, 0x1A	; 26
    1aae:	08 f5       	brcc	.+66     	; 0x1af2 <u8x8_cad_001+0x6e>
    1ab0:	15 c0       	rjmp	.+42     	; 0x1adc <u8x8_cad_001+0x58>
  {
    case U8X8_MSG_CAD_SEND_CMD:
      u8x8_byte_SetDC(u8x8, 0);
    1ab2:	60 e0       	ldi	r22, 0x00	; 0
    1ab4:	0e 94 ea 0b 	call	0x17d4	; 0x17d4 <u8x8_byte_SetDC>
      u8x8_byte_SendByte(u8x8, arg_int);
    1ab8:	6d 2f       	mov	r22, r29
    1aba:	c8 01       	movw	r24, r16
    1abc:	0e 94 ff 0b 	call	0x17fe	; 0x17fe <u8x8_byte_SendByte>
    case U8X8_MSG_CAD_END_TRANSFER:
      return u8x8->byte_cb(u8x8, msg, arg_int, arg_ptr);
    default:
      return 0;
  }
  return 1;
    1ac0:	81 e0       	ldi	r24, 0x01	; 1
  switch(msg)
  {
    case U8X8_MSG_CAD_SEND_CMD:
      u8x8_byte_SetDC(u8x8, 0);
      u8x8_byte_SendByte(u8x8, arg_int);
      break;
    1ac2:	18 c0       	rjmp	.+48     	; 0x1af4 <u8x8_cad_001+0x70>
    case U8X8_MSG_CAD_SEND_ARG:
      u8x8_byte_SetDC(u8x8, 0);
    1ac4:	60 e0       	ldi	r22, 0x00	; 0
    1ac6:	0e 94 ea 0b 	call	0x17d4	; 0x17d4 <u8x8_byte_SetDC>
      u8x8_byte_SendByte(u8x8, arg_int);
    1aca:	6d 2f       	mov	r22, r29
    1acc:	c8 01       	movw	r24, r16
    1ace:	0e 94 ff 0b 	call	0x17fe	; 0x17fe <u8x8_byte_SendByte>
    case U8X8_MSG_CAD_END_TRANSFER:
      return u8x8->byte_cb(u8x8, msg, arg_int, arg_ptr);
    default:
      return 0;
  }
  return 1;
    1ad2:	81 e0       	ldi	r24, 0x01	; 1
      u8x8_byte_SendByte(u8x8, arg_int);
      break;
    case U8X8_MSG_CAD_SEND_ARG:
      u8x8_byte_SetDC(u8x8, 0);
      u8x8_byte_SendByte(u8x8, arg_int);
      break;
    1ad4:	0f c0       	rjmp	.+30     	; 0x1af4 <u8x8_cad_001+0x70>
    case U8X8_MSG_CAD_SEND_DATA:
      u8x8_byte_SetDC(u8x8, 1);
    1ad6:	61 e0       	ldi	r22, 0x01	; 1
    1ad8:	0e 94 ea 0b 	call	0x17d4	; 0x17d4 <u8x8_byte_SetDC>
      //break;
      /* fall through */
    case U8X8_MSG_CAD_INIT:
    case U8X8_MSG_CAD_START_TRANSFER:
    case U8X8_MSG_CAD_END_TRANSFER:
      return u8x8->byte_cb(u8x8, msg, arg_int, arg_ptr);
    1adc:	d8 01       	movw	r26, r16
    1ade:	18 96       	adiw	r26, 0x08	; 8
    1ae0:	ed 91       	ld	r30, X+
    1ae2:	fc 91       	ld	r31, X
    1ae4:	19 97       	sbiw	r26, 0x09	; 9
    1ae6:	97 01       	movw	r18, r14
    1ae8:	4d 2f       	mov	r20, r29
    1aea:	6c 2f       	mov	r22, r28
    1aec:	c8 01       	movw	r24, r16
    1aee:	09 95       	icall
    1af0:	01 c0       	rjmp	.+2      	; 0x1af4 <u8x8_cad_001+0x70>
    default:
      return 0;
    1af2:	80 e0       	ldi	r24, 0x00	; 0
  }
  return 1;
}
    1af4:	df 91       	pop	r29
    1af6:	cf 91       	pop	r28
    1af8:	1f 91       	pop	r17
    1afa:	0f 91       	pop	r16
    1afc:	ff 90       	pop	r15
    1afe:	ef 90       	pop	r14
    1b00:	08 95       	ret

00001b02 <u8x8_d_helper_display_setup_memory>:
  u8x8->display_cb(u8x8, U8X8_MSG_DISPLAY_SET_FLIP_MODE, mode, NULL);  
}

void u8x8_SetContrast(u8x8_t *u8x8, uint8_t value)
{
  u8x8->display_cb(u8x8, U8X8_MSG_DISPLAY_SET_CONTRAST, value, NULL);  
    1b02:	fc 01       	movw	r30, r24
    1b04:	71 83       	std	Z+1, r23	; 0x01
    1b06:	60 83       	st	Z, r22
    1b08:	fb 01       	movw	r30, r22
    1b0a:	22 89       	ldd	r18, Z+18	; 0x12
    1b0c:	fc 01       	movw	r30, r24
    1b0e:	24 8b       	std	Z+20, r18	; 0x14
    1b10:	08 95       	ret

00001b12 <u8x8_d_helper_display_init>:
    1b12:	cf 93       	push	r28
    1b14:	df 93       	push	r29
    1b16:	ec 01       	movw	r28, r24
    1b18:	ea 85       	ldd	r30, Y+10	; 0x0a
    1b1a:	fb 85       	ldd	r31, Y+11	; 0x0b
    1b1c:	20 e0       	ldi	r18, 0x00	; 0
    1b1e:	30 e0       	ldi	r19, 0x00	; 0
    1b20:	40 e0       	ldi	r20, 0x00	; 0
    1b22:	68 e2       	ldi	r22, 0x28	; 40
    1b24:	09 95       	icall
    1b26:	ee 81       	ldd	r30, Y+6	; 0x06
    1b28:	ff 81       	ldd	r31, Y+7	; 0x07
    1b2a:	20 e0       	ldi	r18, 0x00	; 0
    1b2c:	30 e0       	ldi	r19, 0x00	; 0
    1b2e:	40 e0       	ldi	r20, 0x00	; 0
    1b30:	64 e1       	ldi	r22, 0x14	; 20
    1b32:	ce 01       	movw	r24, r28
    1b34:	09 95       	icall
    1b36:	41 e0       	ldi	r20, 0x01	; 1
    1b38:	6b e4       	ldi	r22, 0x4B	; 75
    1b3a:	ce 01       	movw	r24, r28
    1b3c:	0e 94 bd 0e 	call	0x1d7a	; 0x1d7a <u8x8_gpio_call>
    1b40:	e8 81       	ld	r30, Y
    1b42:	f9 81       	ldd	r31, Y+1	; 0x01
    1b44:	44 81       	ldd	r20, Z+4	; 0x04
    1b46:	69 e2       	ldi	r22, 0x29	; 41
    1b48:	ce 01       	movw	r24, r28
    1b4a:	0e 94 bd 0e 	call	0x1d7a	; 0x1d7a <u8x8_gpio_call>
    1b4e:	40 e0       	ldi	r20, 0x00	; 0
    1b50:	6b e4       	ldi	r22, 0x4B	; 75
    1b52:	ce 01       	movw	r24, r28
    1b54:	0e 94 bd 0e 	call	0x1d7a	; 0x1d7a <u8x8_gpio_call>
    1b58:	e8 81       	ld	r30, Y
    1b5a:	f9 81       	ldd	r31, Y+1	; 0x01
    1b5c:	44 81       	ldd	r20, Z+4	; 0x04
    1b5e:	69 e2       	ldi	r22, 0x29	; 41
    1b60:	ce 01       	movw	r24, r28
    1b62:	0e 94 bd 0e 	call	0x1d7a	; 0x1d7a <u8x8_gpio_call>
    1b66:	41 e0       	ldi	r20, 0x01	; 1
    1b68:	6b e4       	ldi	r22, 0x4B	; 75
    1b6a:	ce 01       	movw	r24, r28
    1b6c:	0e 94 bd 0e 	call	0x1d7a	; 0x1d7a <u8x8_gpio_call>
    1b70:	e8 81       	ld	r30, Y
    1b72:	f9 81       	ldd	r31, Y+1	; 0x01
    1b74:	45 81       	ldd	r20, Z+5	; 0x05
    1b76:	69 e2       	ldi	r22, 0x29	; 41
    1b78:	ce 01       	movw	r24, r28
    1b7a:	0e 94 bd 0e 	call	0x1d7a	; 0x1d7a <u8x8_gpio_call>
    1b7e:	df 91       	pop	r29
    1b80:	cf 91       	pop	r28
    1b82:	08 95       	ret

00001b84 <u8x8_DrawTile>:
    1b84:	0f 93       	push	r16
    1b86:	1f 93       	push	r17
    1b88:	cf 93       	push	r28
    1b8a:	df 93       	push	r29
    1b8c:	00 d0       	rcall	.+0      	; 0x1b8e <u8x8_DrawTile+0xa>
    1b8e:	00 d0       	rcall	.+0      	; 0x1b90 <u8x8_DrawTile+0xc>
    1b90:	1f 92       	push	r1
    1b92:	cd b7       	in	r28, 0x3d	; 61
    1b94:	de b7       	in	r29, 0x3e	; 62
    1b96:	6c 83       	std	Y+4, r22	; 0x04
    1b98:	4d 83       	std	Y+5, r20	; 0x05
    1b9a:	2b 83       	std	Y+3, r18	; 0x03
    1b9c:	1a 83       	std	Y+2, r17	; 0x02
    1b9e:	09 83       	std	Y+1, r16	; 0x01
    1ba0:	dc 01       	movw	r26, r24
    1ba2:	14 96       	adiw	r26, 0x04	; 4
    1ba4:	ed 91       	ld	r30, X+
    1ba6:	fc 91       	ld	r31, X
    1ba8:	15 97       	sbiw	r26, 0x05	; 5
    1baa:	9e 01       	movw	r18, r28
    1bac:	2f 5f       	subi	r18, 0xFF	; 255
    1bae:	3f 4f       	sbci	r19, 0xFF	; 255
    1bb0:	41 e0       	ldi	r20, 0x01	; 1
    1bb2:	6f e0       	ldi	r22, 0x0F	; 15
    1bb4:	09 95       	icall
    1bb6:	0f 90       	pop	r0
    1bb8:	0f 90       	pop	r0
    1bba:	0f 90       	pop	r0
    1bbc:	0f 90       	pop	r0
    1bbe:	0f 90       	pop	r0
    1bc0:	df 91       	pop	r29
    1bc2:	cf 91       	pop	r28
    1bc4:	1f 91       	pop	r17
    1bc6:	0f 91       	pop	r16
    1bc8:	08 95       	ret

00001bca <u8x8_SetupMemory>:
    1bca:	dc 01       	movw	r26, r24
    1bcc:	14 96       	adiw	r26, 0x04	; 4
    1bce:	ed 91       	ld	r30, X+
    1bd0:	fc 91       	ld	r31, X
    1bd2:	15 97       	sbiw	r26, 0x05	; 5
    1bd4:	20 e0       	ldi	r18, 0x00	; 0
    1bd6:	30 e0       	ldi	r19, 0x00	; 0
    1bd8:	40 e0       	ldi	r20, 0x00	; 0
    1bda:	69 e0       	ldi	r22, 0x09	; 9
    1bdc:	09 95       	icall
    1bde:	08 95       	ret

00001be0 <u8x8_InitDisplay>:
    1be0:	dc 01       	movw	r26, r24
    1be2:	14 96       	adiw	r26, 0x04	; 4
    1be4:	ed 91       	ld	r30, X+
    1be6:	fc 91       	ld	r31, X
    1be8:	15 97       	sbiw	r26, 0x05	; 5
    1bea:	20 e0       	ldi	r18, 0x00	; 0
    1bec:	30 e0       	ldi	r19, 0x00	; 0
    1bee:	40 e0       	ldi	r20, 0x00	; 0
    1bf0:	6a e0       	ldi	r22, 0x0A	; 10
    1bf2:	09 95       	icall
    1bf4:	08 95       	ret

00001bf6 <u8x8_SetPowerSave>:
    1bf6:	46 2f       	mov	r20, r22
    1bf8:	dc 01       	movw	r26, r24
    1bfa:	14 96       	adiw	r26, 0x04	; 4
    1bfc:	ed 91       	ld	r30, X+
    1bfe:	fc 91       	ld	r31, X
    1c00:	15 97       	sbiw	r26, 0x05	; 5
    1c02:	20 e0       	ldi	r18, 0x00	; 0
    1c04:	30 e0       	ldi	r19, 0x00	; 0
    1c06:	6b e0       	ldi	r22, 0x0B	; 11
    1c08:	09 95       	icall
    1c0a:	08 95       	ret

00001c0c <u8x8_RefreshDisplay>:
}

void u8x8_RefreshDisplay(u8x8_t *u8x8)
{
  u8x8->display_cb(u8x8, U8X8_MSG_DISPLAY_REFRESH, 0, NULL);  
    1c0c:	dc 01       	movw	r26, r24
    1c0e:	14 96       	adiw	r26, 0x04	; 4
    1c10:	ed 91       	ld	r30, X+
    1c12:	fc 91       	ld	r31, X
    1c14:	15 97       	sbiw	r26, 0x05	; 5
    1c16:	20 e0       	ldi	r18, 0x00	; 0
    1c18:	30 e0       	ldi	r19, 0x00	; 0
    1c1a:	40 e0       	ldi	r20, 0x00	; 0
    1c1c:	60 e1       	ldi	r22, 0x10	; 16
    1c1e:	09 95       	icall
    1c20:	08 95       	ret

00001c22 <u8x8_d_ssd1306_sh1106_generic>:
  U8X8_END()             			/* end of sequence */
};


static uint8_t u8x8_d_ssd1306_sh1106_generic(u8x8_t *u8x8, uint8_t msg, uint8_t arg_int, void *arg_ptr)
{
    1c22:	ef 92       	push	r14
    1c24:	ff 92       	push	r15
    1c26:	0f 93       	push	r16
    1c28:	1f 93       	push	r17
    1c2a:	cf 93       	push	r28
    1c2c:	df 93       	push	r29
    1c2e:	8c 01       	movw	r16, r24
    1c30:	c4 2f       	mov	r28, r20
    1c32:	79 01       	movw	r14, r18
  uint8_t x, c;
  uint8_t *ptr;
  switch(msg)
    1c34:	6d 30       	cpi	r22, 0x0D	; 13
    1c36:	b9 f0       	breq	.+46     	; 0x1c66 <u8x8_d_ssd1306_sh1106_generic+0x44>
    1c38:	18 f4       	brcc	.+6      	; 0x1c40 <u8x8_d_ssd1306_sh1106_generic+0x1e>
    1c3a:	6b 30       	cpi	r22, 0x0B	; 11
    1c3c:	31 f0       	breq	.+12     	; 0x1c4a <u8x8_d_ssd1306_sh1106_generic+0x28>
    1c3e:	72 c0       	rjmp	.+228    	; 0x1d24 <u8x8_d_ssd1306_sh1106_generic+0x102>
    1c40:	6e 30       	cpi	r22, 0x0E	; 14
    1c42:	69 f1       	breq	.+90     	; 0x1c9e <u8x8_d_ssd1306_sh1106_generic+0x7c>
    1c44:	6f 30       	cpi	r22, 0x0F	; 15
    1c46:	d1 f1       	breq	.+116    	; 0x1cbc <u8x8_d_ssd1306_sh1106_generic+0x9a>
    1c48:	6d c0       	rjmp	.+218    	; 0x1d24 <u8x8_d_ssd1306_sh1106_generic+0x102>
      u8x8_d_helper_display_init(u8x8);
      u8x8_cad_SendSequence(u8x8, u8x8_d_ssd1306_128x64_noname_init_seq);    
      break;
    */
    case U8X8_MSG_DISPLAY_SET_POWER_SAVE:
      if ( arg_int == 0 )
    1c4a:	41 11       	cpse	r20, r1
    1c4c:	06 c0       	rjmp	.+12     	; 0x1c5a <u8x8_d_ssd1306_sh1106_generic+0x38>
	u8x8_cad_SendSequence(u8x8, u8x8_d_ssd1306_128x64_noname_powersave0_seq);
    1c4e:	61 e5       	ldi	r22, 0x51	; 81
    1c50:	71 e0       	ldi	r23, 0x01	; 1
    1c52:	0e 94 ef 0c 	call	0x19de	; 0x19de <u8x8_cad_SendSequence>
      u8x8_cad_EndTransfer(u8x8);
      break;
    default:
      return 0;
  }
  return 1;
    1c56:	81 e0       	ldi	r24, 0x01	; 1
    1c58:	66 c0       	rjmp	.+204    	; 0x1d26 <u8x8_d_ssd1306_sh1106_generic+0x104>
    */
    case U8X8_MSG_DISPLAY_SET_POWER_SAVE:
      if ( arg_int == 0 )
	u8x8_cad_SendSequence(u8x8, u8x8_d_ssd1306_128x64_noname_powersave0_seq);
      else
	u8x8_cad_SendSequence(u8x8, u8x8_d_ssd1306_128x64_noname_powersave1_seq);
    1c5a:	6c e4       	ldi	r22, 0x4C	; 76
    1c5c:	71 e0       	ldi	r23, 0x01	; 1
    1c5e:	0e 94 ef 0c 	call	0x19de	; 0x19de <u8x8_cad_SendSequence>
      u8x8_cad_EndTransfer(u8x8);
      break;
    default:
      return 0;
  }
  return 1;
    1c62:	81 e0       	ldi	r24, 0x01	; 1
    1c64:	60 c0       	rjmp	.+192    	; 0x1d26 <u8x8_d_ssd1306_sh1106_generic+0x104>
	u8x8_cad_SendSequence(u8x8, u8x8_d_ssd1306_128x64_noname_powersave0_seq);
      else
	u8x8_cad_SendSequence(u8x8, u8x8_d_ssd1306_128x64_noname_powersave1_seq);
      break;
    case U8X8_MSG_DISPLAY_SET_FLIP_MODE:
      if ( arg_int == 0 )
    1c66:	41 11       	cpse	r20, r1
    1c68:	0d c0       	rjmp	.+26     	; 0x1c84 <u8x8_d_ssd1306_sh1106_generic+0x62>
      {
	u8x8_cad_SendSequence(u8x8, u8x8_d_ssd1306_128x64_noname_flip0_seq);
    1c6a:	65 e4       	ldi	r22, 0x45	; 69
    1c6c:	71 e0       	ldi	r23, 0x01	; 1
    1c6e:	0e 94 ef 0c 	call	0x19de	; 0x19de <u8x8_cad_SendSequence>
	u8x8->x_offset = u8x8->display_info->default_x_offset;
    1c72:	d8 01       	movw	r26, r16
    1c74:	ed 91       	ld	r30, X+
    1c76:	fc 91       	ld	r31, X
    1c78:	11 97       	sbiw	r26, 0x01	; 1
    1c7a:	82 89       	ldd	r24, Z+18	; 0x12
    1c7c:	54 96       	adiw	r26, 0x14	; 20
    1c7e:	8c 93       	st	X, r24
      u8x8_cad_EndTransfer(u8x8);
      break;
    default:
      return 0;
  }
  return 1;
    1c80:	81 e0       	ldi	r24, 0x01	; 1
    1c82:	51 c0       	rjmp	.+162    	; 0x1d26 <u8x8_d_ssd1306_sh1106_generic+0x104>
	u8x8_cad_SendSequence(u8x8, u8x8_d_ssd1306_128x64_noname_flip0_seq);
	u8x8->x_offset = u8x8->display_info->default_x_offset;
      }
      else
      {
	u8x8_cad_SendSequence(u8x8, u8x8_d_ssd1306_128x64_noname_flip1_seq);
    1c84:	6e e3       	ldi	r22, 0x3E	; 62
    1c86:	71 e0       	ldi	r23, 0x01	; 1
    1c88:	0e 94 ef 0c 	call	0x19de	; 0x19de <u8x8_cad_SendSequence>
	u8x8->x_offset = u8x8->display_info->flipmode_x_offset;
    1c8c:	d8 01       	movw	r26, r16
    1c8e:	ed 91       	ld	r30, X+
    1c90:	fc 91       	ld	r31, X
    1c92:	11 97       	sbiw	r26, 0x01	; 1
    1c94:	83 89       	ldd	r24, Z+19	; 0x13
    1c96:	54 96       	adiw	r26, 0x14	; 20
    1c98:	8c 93       	st	X, r24
      u8x8_cad_EndTransfer(u8x8);
      break;
    default:
      return 0;
  }
  return 1;
    1c9a:	81 e0       	ldi	r24, 0x01	; 1
    1c9c:	44 c0       	rjmp	.+136    	; 0x1d26 <u8x8_d_ssd1306_sh1106_generic+0x104>
	u8x8->x_offset = u8x8->display_info->flipmode_x_offset;
      }
      break;
#ifdef U8X8_WITH_SET_CONTRAST
    case U8X8_MSG_DISPLAY_SET_CONTRAST:
      u8x8_cad_StartTransfer(u8x8);
    1c9e:	0e 94 d9 0c 	call	0x19b2	; 0x19b2 <u8x8_cad_StartTransfer>
      u8x8_cad_SendCmd(u8x8, 0x081 );
    1ca2:	61 e8       	ldi	r22, 0x81	; 129
    1ca4:	c8 01       	movw	r24, r16
    1ca6:	0e 94 b9 0c 	call	0x1972	; 0x1972 <u8x8_cad_SendCmd>
      u8x8_cad_SendArg(u8x8, arg_int );	/* ssd1306 has range from 0 to 255 */
    1caa:	6c 2f       	mov	r22, r28
    1cac:	c8 01       	movw	r24, r16
    1cae:	0e 94 c4 0c 	call	0x1988	; 0x1988 <u8x8_cad_SendArg>
      u8x8_cad_EndTransfer(u8x8);
    1cb2:	c8 01       	movw	r24, r16
    1cb4:	0e 94 e4 0c 	call	0x19c8	; 0x19c8 <u8x8_cad_EndTransfer>
      u8x8_cad_EndTransfer(u8x8);
      break;
    default:
      return 0;
  }
  return 1;
    1cb8:	81 e0       	ldi	r24, 0x01	; 1
    case U8X8_MSG_DISPLAY_SET_CONTRAST:
      u8x8_cad_StartTransfer(u8x8);
      u8x8_cad_SendCmd(u8x8, 0x081 );
      u8x8_cad_SendArg(u8x8, arg_int );	/* ssd1306 has range from 0 to 255 */
      u8x8_cad_EndTransfer(u8x8);
      break;
    1cba:	35 c0       	rjmp	.+106    	; 0x1d26 <u8x8_d_ssd1306_sh1106_generic+0x104>
#endif
    case U8X8_MSG_DISPLAY_DRAW_TILE:
      u8x8_cad_StartTransfer(u8x8);
    1cbc:	0e 94 d9 0c 	call	0x19b2	; 0x19b2 <u8x8_cad_StartTransfer>
      x = ((u8x8_tile_t *)arg_ptr)->x_pos;    
    1cc0:	f7 01       	movw	r30, r14
    1cc2:	d3 81       	ldd	r29, Z+3	; 0x03
      x *= 8;
    1cc4:	dd 0f       	add	r29, r29
    1cc6:	dd 0f       	add	r29, r29
    1cc8:	dd 0f       	add	r29, r29
      x += u8x8->x_offset;
    1cca:	d8 01       	movw	r26, r16
    1ccc:	54 96       	adiw	r26, 0x14	; 20
    1cce:	8c 91       	ld	r24, X
    1cd0:	d8 0f       	add	r29, r24
    
      u8x8_cad_SendCmd(u8x8, 0x040 );	/* set line offset to 0 */
    1cd2:	60 e4       	ldi	r22, 0x40	; 64
    1cd4:	c8 01       	movw	r24, r16
    1cd6:	0e 94 b9 0c 	call	0x1972	; 0x1972 <u8x8_cad_SendCmd>
    
      u8x8_cad_SendCmd(u8x8, 0x010 | (x>>4) );
    1cda:	6d 2f       	mov	r22, r29
    1cdc:	62 95       	swap	r22
    1cde:	6f 70       	andi	r22, 0x0F	; 15
    1ce0:	60 61       	ori	r22, 0x10	; 16
    1ce2:	c8 01       	movw	r24, r16
    1ce4:	0e 94 b9 0c 	call	0x1972	; 0x1972 <u8x8_cad_SendCmd>
      u8x8_cad_SendArg(u8x8, 0x000 | ((x&15)));					/* probably wrong, should be SendCmd */
    1ce8:	6d 2f       	mov	r22, r29
    1cea:	6f 70       	andi	r22, 0x0F	; 15
    1cec:	c8 01       	movw	r24, r16
    1cee:	0e 94 c4 0c 	call	0x1988	; 0x1988 <u8x8_cad_SendArg>
      u8x8_cad_SendArg(u8x8, 0x0b0 | (((u8x8_tile_t *)arg_ptr)->y_pos));	/* probably wrong, should be SendCmd */
    1cf2:	f7 01       	movw	r30, r14
    1cf4:	64 81       	ldd	r22, Z+4	; 0x04
    1cf6:	60 6b       	ori	r22, 0xB0	; 176
    1cf8:	c8 01       	movw	r24, r16
    1cfa:	0e 94 c4 0c 	call	0x1988	; 0x1988 <u8x8_cad_SendArg>
    
      do
      {
	c = ((u8x8_tile_t *)arg_ptr)->cnt;
	ptr = ((u8x8_tile_t *)arg_ptr)->tile_ptr;
	u8x8_cad_SendData(u8x8, c*8, ptr); 	/* note: SendData can not handle more than 255 bytes */
    1cfe:	d7 01       	movw	r26, r14
    1d00:	4d 91       	ld	r20, X+
    1d02:	5c 91       	ld	r21, X
    1d04:	11 97       	sbiw	r26, 0x01	; 1
    1d06:	12 96       	adiw	r26, 0x02	; 2
    1d08:	6c 91       	ld	r22, X
    1d0a:	66 0f       	add	r22, r22
    1d0c:	66 0f       	add	r22, r22
    1d0e:	66 0f       	add	r22, r22
    1d10:	c8 01       	movw	r24, r16
    1d12:	0e 94 cf 0c 	call	0x199e	; 0x199e <u8x8_cad_SendData>
	  u8x8_cad_SendData(u8x8, 8, ptr);
	  ptr += 8;
	  c--;
	} while( c > 0 );
	*/
	arg_int--;
    1d16:	c1 50       	subi	r28, 0x01	; 1
      } while( arg_int > 0 );
    1d18:	91 f7       	brne	.-28     	; 0x1cfe <u8x8_d_ssd1306_sh1106_generic+0xdc>
      
      u8x8_cad_EndTransfer(u8x8);
    1d1a:	c8 01       	movw	r24, r16
    1d1c:	0e 94 e4 0c 	call	0x19c8	; 0x19c8 <u8x8_cad_EndTransfer>
      break;
    default:
      return 0;
  }
  return 1;
    1d20:	81 e0       	ldi	r24, 0x01	; 1
	*/
	arg_int--;
      } while( arg_int > 0 );
      
      u8x8_cad_EndTransfer(u8x8);
      break;
    1d22:	01 c0       	rjmp	.+2      	; 0x1d26 <u8x8_d_ssd1306_sh1106_generic+0x104>
    default:
      return 0;
    1d24:	80 e0       	ldi	r24, 0x00	; 0
  }
  return 1;
}
    1d26:	df 91       	pop	r29
    1d28:	cf 91       	pop	r28
    1d2a:	1f 91       	pop	r17
    1d2c:	0f 91       	pop	r16
    1d2e:	ff 90       	pop	r15
    1d30:	ef 90       	pop	r14
    1d32:	08 95       	ret

00001d34 <u8x8_d_ssd1306_128x64_noname>:
  /* pixel_width = */ 128,
  /* pixel_height = */ 64
};

uint8_t u8x8_d_ssd1306_128x64_noname(u8x8_t *u8x8, uint8_t msg, uint8_t arg_int, void *arg_ptr)
{
    1d34:	0f 93       	push	r16
    1d36:	1f 93       	push	r17
    1d38:	cf 93       	push	r28
    1d3a:	8c 01       	movw	r16, r24
    1d3c:	c6 2f       	mov	r28, r22
    
  if ( u8x8_d_ssd1306_sh1106_generic(u8x8, msg, arg_int, arg_ptr) != 0 )
    1d3e:	0e 94 11 0e 	call	0x1c22	; 0x1c22 <u8x8_d_ssd1306_sh1106_generic>
    1d42:	81 11       	cpse	r24, r1
    1d44:	15 c0       	rjmp	.+42     	; 0x1d70 <u8x8_d_ssd1306_128x64_noname+0x3c>
    return 1;
  
  switch(msg)
    1d46:	c9 30       	cpi	r28, 0x09	; 9
    1d48:	61 f0       	breq	.+24     	; 0x1d62 <u8x8_d_ssd1306_128x64_noname+0x2e>
    1d4a:	ca 30       	cpi	r28, 0x0A	; 10
    1d4c:	91 f4       	brne	.+36     	; 0x1d72 <u8x8_d_ssd1306_128x64_noname+0x3e>
  {
    case U8X8_MSG_DISPLAY_INIT:
      u8x8_d_helper_display_init(u8x8);
    1d4e:	c8 01       	movw	r24, r16
    1d50:	0e 94 89 0d 	call	0x1b12	; 0x1b12 <u8x8_d_helper_display_init>
      u8x8_cad_SendSequence(u8x8, u8x8_d_ssd1306_128x64_noname_init_seq);    
    1d54:	66 e5       	ldi	r22, 0x56	; 86
    1d56:	71 e0       	ldi	r23, 0x01	; 1
    1d58:	c8 01       	movw	r24, r16
    1d5a:	0e 94 ef 0c 	call	0x19de	; 0x19de <u8x8_cad_SendSequence>
      u8x8_d_helper_display_setup_memory(u8x8, &u8x8_ssd1306_128x64_noname_display_info);
      break;
    default:
      return 0;
  }
  return 1;
    1d5e:	81 e0       	ldi	r24, 0x01	; 1
  switch(msg)
  {
    case U8X8_MSG_DISPLAY_INIT:
      u8x8_d_helper_display_init(u8x8);
      u8x8_cad_SendSequence(u8x8, u8x8_d_ssd1306_128x64_noname_init_seq);    
      break;
    1d60:	08 c0       	rjmp	.+16     	; 0x1d72 <u8x8_d_ssd1306_128x64_noname+0x3e>
    case U8X8_MSG_DISPLAY_SETUP_MEMORY:
      u8x8_d_helper_display_setup_memory(u8x8, &u8x8_ssd1306_128x64_noname_display_info);
    1d62:	66 e2       	ldi	r22, 0x26	; 38
    1d64:	71 e0       	ldi	r23, 0x01	; 1
    1d66:	c8 01       	movw	r24, r16
    1d68:	0e 94 81 0d 	call	0x1b02	; 0x1b02 <u8x8_d_helper_display_setup_memory>
      break;
    default:
      return 0;
  }
  return 1;
    1d6c:	81 e0       	ldi	r24, 0x01	; 1
      u8x8_d_helper_display_init(u8x8);
      u8x8_cad_SendSequence(u8x8, u8x8_d_ssd1306_128x64_noname_init_seq);    
      break;
    case U8X8_MSG_DISPLAY_SETUP_MEMORY:
      u8x8_d_helper_display_setup_memory(u8x8, &u8x8_ssd1306_128x64_noname_display_info);
      break;
    1d6e:	01 c0       	rjmp	.+2      	; 0x1d72 <u8x8_d_ssd1306_128x64_noname+0x3e>

uint8_t u8x8_d_ssd1306_128x64_noname(u8x8_t *u8x8, uint8_t msg, uint8_t arg_int, void *arg_ptr)
{
    
  if ( u8x8_d_ssd1306_sh1106_generic(u8x8, msg, arg_int, arg_ptr) != 0 )
    return 1;
    1d70:	81 e0       	ldi	r24, 0x01	; 1
      break;
    default:
      return 0;
  }
  return 1;
}
    1d72:	cf 91       	pop	r28
    1d74:	1f 91       	pop	r17
    1d76:	0f 91       	pop	r16
    1d78:	08 95       	ret

00001d7a <u8x8_gpio_call>:
#include "u8x8.h"


void u8x8_gpio_call(u8x8_t *u8x8, uint8_t msg, uint8_t arg)
{
  u8x8->gpio_and_delay_cb(u8x8, msg, arg, NULL);
    1d7a:	dc 01       	movw	r26, r24
    1d7c:	1a 96       	adiw	r26, 0x0a	; 10
    1d7e:	ed 91       	ld	r30, X+
    1d80:	fc 91       	ld	r31, X
    1d82:	1b 97       	sbiw	r26, 0x0b	; 11
    1d84:	20 e0       	ldi	r18, 0x00	; 0
    1d86:	30 e0       	ldi	r19, 0x00	; 0
    1d88:	09 95       	icall
    1d8a:	08 95       	ret

00001d8c <u8x8_dummy_cb>:
      u8x8_d_helper_display_init(u8x8);
      break;
  }
  /* the null device callback will succeed for all messages */
  return 1;
}
    1d8c:	80 e0       	ldi	r24, 0x00	; 0
    1d8e:	08 95       	ret

00001d90 <u8x8_SetupDefaults>:
    Setup u8x8
  Args:
    u8x8	An empty u8x8 structure
*/
void u8x8_SetupDefaults(u8x8_t *u8x8)
{
    1d90:	fc 01       	movw	r30, r24
    u8x8->display_info = NULL;
    1d92:	11 82       	std	Z+1, r1	; 0x01
    1d94:	10 82       	st	Z, r1
    u8x8->display_cb = u8x8_dummy_cb;
    1d96:	86 ec       	ldi	r24, 0xC6	; 198
    1d98:	9e e0       	ldi	r25, 0x0E	; 14
    1d9a:	95 83       	std	Z+5, r25	; 0x05
    1d9c:	84 83       	std	Z+4, r24	; 0x04
    u8x8->cad_cb = u8x8_dummy_cb;
    1d9e:	97 83       	std	Z+7, r25	; 0x07
    1da0:	86 83       	std	Z+6, r24	; 0x06
    u8x8->byte_cb = u8x8_dummy_cb;
    1da2:	91 87       	std	Z+9, r25	; 0x09
    1da4:	80 87       	std	Z+8, r24	; 0x08
    u8x8->gpio_and_delay_cb = u8x8_dummy_cb;
    1da6:	93 87       	std	Z+11, r25	; 0x0b
    1da8:	82 87       	std	Z+10, r24	; 0x0a
    u8x8->is_font_inverse_mode = 0;
    1daa:	15 8a       	std	Z+21, r1	; 0x15
    u8x8->device_address = 0;
    1dac:	10 8e       	std	Z+24, r1	; 0x18
    u8x8->utf8_state = 0;		/* also reset by u8x8_utf8_init */
    1dae:	11 8e       	std	Z+25, r1	; 0x19
    u8x8->bus_clock = 0;		/* issue 769 */
    1db0:	14 86       	std	Z+12, r1	; 0x0c
    1db2:	15 86       	std	Z+13, r1	; 0x0d
    1db4:	16 86       	std	Z+14, r1	; 0x0e
    1db6:	17 86       	std	Z+15, r1	; 0x0f
    u8x8->i2c_address = 255;
    1db8:	8f ef       	ldi	r24, 0xFF	; 255
    1dba:	86 8b       	std	Z+22, r24	; 0x16
    u8x8->debounce_default_pin_state = 255;	/* assume all low active buttons */
    1dbc:	83 8f       	std	Z+27, r24	; 0x1b
    1dbe:	08 95       	ret

00001dc0 <u8x8_Setup>:
    byte_cb			Display controller/communication specific callback funtion
    gpio_and_delay_cb	Environment specific callback function

*/
void u8x8_Setup(u8x8_t *u8x8, u8x8_msg_cb display_cb, u8x8_msg_cb cad_cb, u8x8_msg_cb byte_cb, u8x8_msg_cb gpio_and_delay_cb)
{
    1dc0:	af 92       	push	r10
    1dc2:	bf 92       	push	r11
    1dc4:	cf 92       	push	r12
    1dc6:	df 92       	push	r13
    1dc8:	ef 92       	push	r14
    1dca:	ff 92       	push	r15
    1dcc:	0f 93       	push	r16
    1dce:	1f 93       	push	r17
    1dd0:	cf 93       	push	r28
    1dd2:	df 93       	push	r29
    1dd4:	ec 01       	movw	r28, r24
    1dd6:	5b 01       	movw	r10, r22
    1dd8:	6a 01       	movw	r12, r20
    1dda:	79 01       	movw	r14, r18
  /* setup defaults and reset pins to U8X8_PIN_NONE */
  u8x8_SetupDefaults(u8x8);
    1ddc:	0e 94 c8 0e 	call	0x1d90	; 0x1d90 <u8x8_SetupDefaults>

  /* setup specific callbacks */
  u8x8->display_cb = display_cb;
    1de0:	bd 82       	std	Y+5, r11	; 0x05
    1de2:	ac 82       	std	Y+4, r10	; 0x04
  u8x8->cad_cb = cad_cb;
    1de4:	df 82       	std	Y+7, r13	; 0x07
    1de6:	ce 82       	std	Y+6, r12	; 0x06
  u8x8->byte_cb = byte_cb;
    1de8:	f9 86       	std	Y+9, r15	; 0x09
    1dea:	e8 86       	std	Y+8, r14	; 0x08
  u8x8->gpio_and_delay_cb = gpio_and_delay_cb;
    1dec:	1b 87       	std	Y+11, r17	; 0x0b
    1dee:	0a 87       	std	Y+10, r16	; 0x0a

  /* setup display info */
  u8x8_SetupMemory(u8x8);
    1df0:	ce 01       	movw	r24, r28
    1df2:	0e 94 e5 0d 	call	0x1bca	; 0x1bca <u8x8_SetupMemory>
}
    1df6:	df 91       	pop	r29
    1df8:	cf 91       	pop	r28
    1dfa:	1f 91       	pop	r17
    1dfc:	0f 91       	pop	r16
    1dfe:	ff 90       	pop	r15
    1e00:	ef 90       	pop	r14
    1e02:	df 90       	pop	r13
    1e04:	cf 90       	pop	r12
    1e06:	bf 90       	pop	r11
    1e08:	af 90       	pop	r10
    1e0a:	08 95       	ret

00001e0c <main>:
extern uint8_t taskEnter;

int main(void)
{
	/* Call init function with all modules */
	Task_Init();
    1e0c:	0e 94 7d 0f 	call	0x1efa	; 0x1efa <Task_Init>
	
    /* Main loop with simple scheduler */
    while (1) 
    {
		if(taskEnter & TASK_ENTER_1S)
    1e10:	80 91 2a 06 	lds	r24, 0x062A	; 0x80062a <taskEnter>
    1e14:	81 ff       	sbrs	r24, 1
    1e16:	07 c0       	rjmp	.+14     	; 0x1e26 <main+0x1a>
		{
			Task_1s();
    1e18:	0e 94 97 0f 	call	0x1f2e	; 0x1f2e <Task_1s>
			taskEnter &= ~TASK_ENTER_1S;
    1e1c:	80 91 2a 06 	lds	r24, 0x062A	; 0x80062a <taskEnter>
    1e20:	8d 7f       	andi	r24, 0xFD	; 253
    1e22:	80 93 2a 06 	sts	0x062A, r24	; 0x80062a <taskEnter>
		}
				
		if(taskEnter & TASK_ENTER_100MS)
    1e26:	80 91 2a 06 	lds	r24, 0x062A	; 0x80062a <taskEnter>
    1e2a:	80 ff       	sbrs	r24, 0
    1e2c:	07 c0       	rjmp	.+14     	; 0x1e3c <main+0x30>
		{
			Task_100ms();
    1e2e:	0e 94 88 0f 	call	0x1f10	; 0x1f10 <Task_100ms>
			taskEnter &= ~TASK_ENTER_100MS;
    1e32:	80 91 2a 06 	lds	r24, 0x062A	; 0x80062a <taskEnter>
    1e36:	8e 7f       	andi	r24, 0xFE	; 254
    1e38:	80 93 2a 06 	sts	0x062A, r24	; 0x80062a <taskEnter>
		}
				
		if(taskEnter & (TASK_ENTER_100MS | TASK_ENTER_1S))
    1e3c:	80 91 2a 06 	lds	r24, 0x062A	; 0x80062a <taskEnter>
    1e40:	83 70       	andi	r24, 0x03	; 3
    1e42:	31 f3       	breq	.-52     	; 0x1e10 <main+0x4>
		{
			Task_Idle();
    1e44:	0e 94 9e 0f 	call	0x1f3c	; 0x1f3c <Task_Idle>
    1e48:	e3 cf       	rjmp	.-58     	; 0x1e10 <main+0x4>

00001e4a <__vector_13>:
uint32_t cnt;

extern uint8_t taskEnter;

ISR(TIMER1_OVF_vect)
{	
    1e4a:	1f 92       	push	r1
    1e4c:	0f 92       	push	r0
    1e4e:	0f b6       	in	r0, 0x3f	; 63
    1e50:	0f 92       	push	r0
    1e52:	11 24       	eor	r1, r1
    1e54:	2f 93       	push	r18
    1e56:	3f 93       	push	r19
    1e58:	4f 93       	push	r20
    1e5a:	5f 93       	push	r21
    1e5c:	6f 93       	push	r22
    1e5e:	7f 93       	push	r23
    1e60:	8f 93       	push	r24
    1e62:	9f 93       	push	r25
    1e64:	af 93       	push	r26
    1e66:	bf 93       	push	r27
    1e68:	cf 93       	push	r28
    1e6a:	ef 93       	push	r30
    1e6c:	ff 93       	push	r31
	cnt++;	//increment counter every 100ms
    1e6e:	80 91 26 06 	lds	r24, 0x0626	; 0x800626 <cnt>
    1e72:	90 91 27 06 	lds	r25, 0x0627	; 0x800627 <cnt+0x1>
    1e76:	a0 91 28 06 	lds	r26, 0x0628	; 0x800628 <cnt+0x2>
    1e7a:	b0 91 29 06 	lds	r27, 0x0629	; 0x800629 <cnt+0x3>
    1e7e:	01 96       	adiw	r24, 0x01	; 1
    1e80:	a1 1d       	adc	r26, r1
    1e82:	b1 1d       	adc	r27, r1
    1e84:	80 93 26 06 	sts	0x0626, r24	; 0x800626 <cnt>
    1e88:	90 93 27 06 	sts	0x0627, r25	; 0x800627 <cnt+0x1>
    1e8c:	a0 93 28 06 	sts	0x0628, r26	; 0x800628 <cnt+0x2>
    1e90:	b0 93 29 06 	sts	0x0629, r27	; 0x800629 <cnt+0x3>
	
	TCNT1 = TIME_TIMER1_SET_TICKS;   // for 1 sec at 16 MHz
    1e94:	85 ee       	ldi	r24, 0xE5	; 229
    1e96:	99 ef       	ldi	r25, 0xF9	; 249
    1e98:	90 93 85 00 	sts	0x0085, r25	; 0x800085 <__DATA_REGION_ORIGIN__+0x25>
    1e9c:	80 93 84 00 	sts	0x0084, r24	; 0x800084 <__DATA_REGION_ORIGIN__+0x24>
	taskEnter |= TASK_ENTER_100MS;
    1ea0:	c0 91 2a 06 	lds	r28, 0x062A	; 0x80062a <taskEnter>
    1ea4:	8c 2f       	mov	r24, r28
    1ea6:	81 60       	ori	r24, 0x01	; 1
    1ea8:	80 93 2a 06 	sts	0x062A, r24	; 0x80062a <taskEnter>
	
	/* cnt divisible by 10, enter task 1s */
	if(DIVISIBLE == (cnt % TASK_1S_CYCLES))
    1eac:	60 91 26 06 	lds	r22, 0x0626	; 0x800626 <cnt>
    1eb0:	70 91 27 06 	lds	r23, 0x0627	; 0x800627 <cnt+0x1>
    1eb4:	80 91 28 06 	lds	r24, 0x0628	; 0x800628 <cnt+0x2>
    1eb8:	90 91 29 06 	lds	r25, 0x0629	; 0x800629 <cnt+0x3>
    1ebc:	2a e0       	ldi	r18, 0x0A	; 10
    1ebe:	30 e0       	ldi	r19, 0x00	; 0
    1ec0:	40 e0       	ldi	r20, 0x00	; 0
    1ec2:	50 e0       	ldi	r21, 0x00	; 0
    1ec4:	0e 94 f7 0f 	call	0x1fee	; 0x1fee <__udivmodsi4>
    1ec8:	67 2b       	or	r22, r23
    1eca:	68 2b       	or	r22, r24
    1ecc:	69 2b       	or	r22, r25
    1ece:	19 f4       	brne	.+6      	; 0x1ed6 <__vector_13+0x8c>
	{
		taskEnter |= TASK_ENTER_1S;
    1ed0:	c3 60       	ori	r28, 0x03	; 3
    1ed2:	c0 93 2a 06 	sts	0x062A, r28	; 0x80062a <taskEnter>
	}
    1ed6:	ff 91       	pop	r31
    1ed8:	ef 91       	pop	r30
    1eda:	cf 91       	pop	r28
    1edc:	bf 91       	pop	r27
    1ede:	af 91       	pop	r26
    1ee0:	9f 91       	pop	r25
    1ee2:	8f 91       	pop	r24
    1ee4:	7f 91       	pop	r23
    1ee6:	6f 91       	pop	r22
    1ee8:	5f 91       	pop	r21
    1eea:	4f 91       	pop	r20
    1eec:	3f 91       	pop	r19
    1eee:	2f 91       	pop	r18
    1ef0:	0f 90       	pop	r0
    1ef2:	0f be       	out	0x3f, r0	; 63
    1ef4:	0f 90       	pop	r0
    1ef6:	1f 90       	pop	r1
    1ef8:	18 95       	reti

00001efa <Task_Init>:

/* Task call only once on start to initialize
 * all interfaces and pins */
void Task_Init(void)
{
	DDRD |= _BV(PD7);		//yellow LED as an output
    1efa:	57 9a       	sbi	0x0a, 7	; 10
	PORTD |= _BV(PD7);		//turn on 
    1efc:	5f 9a       	sbi	0x0b, 7	; 11
	
	Init_Oled(&u8g2);
    1efe:	80 ec       	ldi	r24, 0xC0	; 192
    1f00:	95 e0       	ldi	r25, 0x05	; 5
    1f02:	0e 94 86 05 	call	0xb0c	; 0xb0c <Init_Oled>
	Init_Timer(&timer);
    1f06:	8b e2       	ldi	r24, 0x2B	; 43
    1f08:	96 e0       	ldi	r25, 0x06	; 6
    1f0a:	0e 94 a0 0f 	call	0x1f40	; 0x1f40 <Init_Timer>
    1f0e:	08 95       	ret

00001f10 <Task_100ms>:


/* Task called every 100ms */
void Task_100ms(void)
{
	OLED_FunScreen();
    1f10:	0e 94 9d 04 	call	0x93a	; 0x93a <OLED_FunScreen>
	UpdateTimer(&timer, cnt);
    1f14:	40 91 26 06 	lds	r20, 0x0626	; 0x800626 <cnt>
    1f18:	50 91 27 06 	lds	r21, 0x0627	; 0x800627 <cnt+0x1>
    1f1c:	60 91 28 06 	lds	r22, 0x0628	; 0x800628 <cnt+0x2>
    1f20:	70 91 29 06 	lds	r23, 0x0629	; 0x800629 <cnt+0x3>
    1f24:	8b e2       	ldi	r24, 0x2B	; 43
    1f26:	96 e0       	ldi	r25, 0x06	; 6
    1f28:	0e 94 b8 0f 	call	0x1f70	; 0x1f70 <UpdateTimer>
    1f2c:	08 95       	ret

00001f2e <Task_1s>:
}

/* Task called every 1s */
void Task_1s(void)
{
	if(PORTD == _BV(PD7))
    1f2e:	8b b1       	in	r24, 0x0b	; 11
    1f30:	80 38       	cpi	r24, 0x80	; 128
    1f32:	11 f4       	brne	.+4      	; 0x1f38 <Task_1s+0xa>
		PORTD &=~ _BV(PD7);
    1f34:	5f 98       	cbi	0x0b, 7	; 11
    1f36:	08 95       	ret
	else
		PORTD |= _BV(PD7);
    1f38:	5f 9a       	sbi	0x0b, 7	; 11
    1f3a:	08 95       	ret

00001f3c <Task_Idle>:
}

/* Task called when other task do not have processor time */
void Task_Idle(void)
{
	asm ("nop");		//to prevent optimization
    1f3c:	00 00       	nop
    1f3e:	08 95       	ret

00001f40 <Init_Timer>:
/* Global variable to store uptime values */
timer_t timer;

/* Function called to set timer values to 0 */
void Init_Timer(timer_t *timer)
{
    1f40:	fc 01       	movw	r30, r24
	timer->sec_total    = 0u;
    1f42:	10 82       	st	Z, r1
    1f44:	11 82       	std	Z+1, r1	; 0x01
    1f46:	12 82       	std	Z+2, r1	; 0x02
    1f48:	13 82       	std	Z+3, r1	; 0x03
	timer->hours        = 0u;
    1f4a:	14 82       	std	Z+4, r1	; 0x04
	timer->minutes      = 0u;
    1f4c:	15 82       	std	Z+5, r1	; 0x05
	timer->seconds      = 0u;
    1f4e:	16 82       	std	Z+6, r1	; 0x06
	
	/* Enabling timer1 */
	TCNT1 = 63974;   // for 1 sec at 16 MHz
    1f50:	86 ee       	ldi	r24, 0xE6	; 230
    1f52:	99 ef       	ldi	r25, 0xF9	; 249
    1f54:	90 93 85 00 	sts	0x0085, r25	; 0x800085 <__DATA_REGION_ORIGIN__+0x25>
    1f58:	80 93 84 00 	sts	0x0084, r24	; 0x800084 <__DATA_REGION_ORIGIN__+0x24>
	TCCR1A = 0x00;
    1f5c:	10 92 80 00 	sts	0x0080, r1	; 0x800080 <__DATA_REGION_ORIGIN__+0x20>
	TCCR1B = (1<<CS10) | (1<<CS12);;  // Timer mode with 1024 prescalar
    1f60:	85 e0       	ldi	r24, 0x05	; 5
    1f62:	80 93 81 00 	sts	0x0081, r24	; 0x800081 <__DATA_REGION_ORIGIN__+0x21>
	TIMSK1 = (1 << TOIE1) ;			  // Enable timer1 overflow interrupt(TOIE1)
    1f66:	81 e0       	ldi	r24, 0x01	; 1
    1f68:	80 93 6f 00 	sts	0x006F, r24	; 0x80006f <__DATA_REGION_ORIGIN__+0xf>
	sei();        // Enable global interrupts by setting global interrupt enable bit in SREG
    1f6c:	78 94       	sei
    1f6e:	08 95       	ret

00001f70 <UpdateTimer>:
}

/* Function called to update timer structure */
void UpdateTimer(timer_t *timer, uint32_t cnt)
{
    1f70:	8f 92       	push	r8
    1f72:	9f 92       	push	r9
    1f74:	af 92       	push	r10
    1f76:	bf 92       	push	r11
    1f78:	cf 92       	push	r12
    1f7a:	df 92       	push	r13
    1f7c:	ef 92       	push	r14
    1f7e:	ff 92       	push	r15
    1f80:	cf 93       	push	r28
    1f82:	df 93       	push	r29
    1f84:	ec 01       	movw	r28, r24
    1f86:	4a 01       	movw	r8, r20
    1f88:	5b 01       	movw	r10, r22
	timer->sec_total = cnt / TIME_CNT_COEFF;
    1f8a:	cb 01       	movw	r24, r22
    1f8c:	ba 01       	movw	r22, r20
    1f8e:	2a e0       	ldi	r18, 0x0A	; 10
    1f90:	30 e0       	ldi	r19, 0x00	; 0
    1f92:	40 e0       	ldi	r20, 0x00	; 0
    1f94:	50 e0       	ldi	r21, 0x00	; 0
    1f96:	0e 94 f7 0f 	call	0x1fee	; 0x1fee <__udivmodsi4>
    1f9a:	69 01       	movw	r12, r18
    1f9c:	7a 01       	movw	r14, r20
    1f9e:	28 83       	st	Y, r18
    1fa0:	39 83       	std	Y+1, r19	; 0x01
    1fa2:	4a 83       	std	Y+2, r20	; 0x02
    1fa4:	5b 83       	std	Y+3, r21	; 0x03
	timer->hours = timer->sec_total / TIME_SEC_IN_HR;
    1fa6:	c5 01       	movw	r24, r10
    1fa8:	b4 01       	movw	r22, r8
    1faa:	20 ea       	ldi	r18, 0xA0	; 160
    1fac:	3c e8       	ldi	r19, 0x8C	; 140
    1fae:	40 e0       	ldi	r20, 0x00	; 0
    1fb0:	50 e0       	ldi	r21, 0x00	; 0
    1fb2:	0e 94 f7 0f 	call	0x1fee	; 0x1fee <__udivmodsi4>
    1fb6:	2c 83       	std	Y+4, r18	; 0x04
	timer->minutes = (timer->sec_total % TIME_SEC_IN_HR) / TIME_MIN_IN_HR;
    1fb8:	c7 01       	movw	r24, r14
    1fba:	b6 01       	movw	r22, r12
    1fbc:	20 e1       	ldi	r18, 0x10	; 16
    1fbe:	3e e0       	ldi	r19, 0x0E	; 14
    1fc0:	40 e0       	ldi	r20, 0x00	; 0
    1fc2:	50 e0       	ldi	r21, 0x00	; 0
    1fc4:	0e 94 f7 0f 	call	0x1fee	; 0x1fee <__udivmodsi4>
    1fc8:	2c e3       	ldi	r18, 0x3C	; 60
    1fca:	30 e0       	ldi	r19, 0x00	; 0
    1fcc:	40 e0       	ldi	r20, 0x00	; 0
    1fce:	50 e0       	ldi	r21, 0x00	; 0
    1fd0:	0e 94 f7 0f 	call	0x1fee	; 0x1fee <__udivmodsi4>
    1fd4:	2d 83       	std	Y+5, r18	; 0x05
	timer->seconds = (timer->sec_total % TIME_SEC_IN_HR) % TIME_MIN_IN_HR;
    1fd6:	6e 83       	std	Y+6, r22	; 0x06
    1fd8:	df 91       	pop	r29
    1fda:	cf 91       	pop	r28
    1fdc:	ff 90       	pop	r15
    1fde:	ef 90       	pop	r14
    1fe0:	df 90       	pop	r13
    1fe2:	cf 90       	pop	r12
    1fe4:	bf 90       	pop	r11
    1fe6:	af 90       	pop	r10
    1fe8:	9f 90       	pop	r9
    1fea:	8f 90       	pop	r8
    1fec:	08 95       	ret

00001fee <__udivmodsi4>:
    1fee:	a1 e2       	ldi	r26, 0x21	; 33
    1ff0:	1a 2e       	mov	r1, r26
    1ff2:	aa 1b       	sub	r26, r26
    1ff4:	bb 1b       	sub	r27, r27
    1ff6:	fd 01       	movw	r30, r26
    1ff8:	0d c0       	rjmp	.+26     	; 0x2014 <__udivmodsi4_ep>

00001ffa <__udivmodsi4_loop>:
    1ffa:	aa 1f       	adc	r26, r26
    1ffc:	bb 1f       	adc	r27, r27
    1ffe:	ee 1f       	adc	r30, r30
    2000:	ff 1f       	adc	r31, r31
    2002:	a2 17       	cp	r26, r18
    2004:	b3 07       	cpc	r27, r19
    2006:	e4 07       	cpc	r30, r20
    2008:	f5 07       	cpc	r31, r21
    200a:	20 f0       	brcs	.+8      	; 0x2014 <__udivmodsi4_ep>
    200c:	a2 1b       	sub	r26, r18
    200e:	b3 0b       	sbc	r27, r19
    2010:	e4 0b       	sbc	r30, r20
    2012:	f5 0b       	sbc	r31, r21

00002014 <__udivmodsi4_ep>:
    2014:	66 1f       	adc	r22, r22
    2016:	77 1f       	adc	r23, r23
    2018:	88 1f       	adc	r24, r24
    201a:	99 1f       	adc	r25, r25
    201c:	1a 94       	dec	r1
    201e:	69 f7       	brne	.-38     	; 0x1ffa <__udivmodsi4_loop>
    2020:	60 95       	com	r22
    2022:	70 95       	com	r23
    2024:	80 95       	com	r24
    2026:	90 95       	com	r25
    2028:	9b 01       	movw	r18, r22
    202a:	ac 01       	movw	r20, r24
    202c:	bd 01       	movw	r22, r26
    202e:	cf 01       	movw	r24, r30
    2030:	08 95       	ret

00002032 <__umulhisi3>:
    2032:	a2 9f       	mul	r26, r18
    2034:	b0 01       	movw	r22, r0
    2036:	b3 9f       	mul	r27, r19
    2038:	c0 01       	movw	r24, r0
    203a:	a3 9f       	mul	r26, r19
    203c:	70 0d       	add	r23, r0
    203e:	81 1d       	adc	r24, r1
    2040:	11 24       	eor	r1, r1
    2042:	91 1d       	adc	r25, r1
    2044:	b2 9f       	mul	r27, r18
    2046:	70 0d       	add	r23, r0
    2048:	81 1d       	adc	r24, r1
    204a:	11 24       	eor	r1, r1
    204c:	91 1d       	adc	r25, r1
    204e:	08 95       	ret

00002050 <memset>:
    2050:	dc 01       	movw	r26, r24
    2052:	01 c0       	rjmp	.+2      	; 0x2056 <memset+0x6>
    2054:	6d 93       	st	X+, r22
    2056:	41 50       	subi	r20, 0x01	; 1
    2058:	50 40       	sbci	r21, 0x00	; 0
    205a:	e0 f7       	brcc	.-8      	; 0x2054 <memset+0x4>
    205c:	08 95       	ret

0000205e <sprintf>:
    205e:	ae e0       	ldi	r26, 0x0E	; 14
    2060:	b0 e0       	ldi	r27, 0x00	; 0
    2062:	e5 e3       	ldi	r30, 0x35	; 53
    2064:	f0 e1       	ldi	r31, 0x10	; 16
    2066:	0c 94 f0 12 	jmp	0x25e0	; 0x25e0 <__prologue_saves__+0x1c>
    206a:	0d 89       	ldd	r16, Y+21	; 0x15
    206c:	1e 89       	ldd	r17, Y+22	; 0x16
    206e:	86 e0       	ldi	r24, 0x06	; 6
    2070:	8c 83       	std	Y+4, r24	; 0x04
    2072:	1a 83       	std	Y+2, r17	; 0x02
    2074:	09 83       	std	Y+1, r16	; 0x01
    2076:	8f ef       	ldi	r24, 0xFF	; 255
    2078:	9f e7       	ldi	r25, 0x7F	; 127
    207a:	9e 83       	std	Y+6, r25	; 0x06
    207c:	8d 83       	std	Y+5, r24	; 0x05
    207e:	ae 01       	movw	r20, r28
    2080:	47 5e       	subi	r20, 0xE7	; 231
    2082:	5f 4f       	sbci	r21, 0xFF	; 255
    2084:	6f 89       	ldd	r22, Y+23	; 0x17
    2086:	78 8d       	ldd	r23, Y+24	; 0x18
    2088:	ce 01       	movw	r24, r28
    208a:	01 96       	adiw	r24, 0x01	; 1
    208c:	0e 94 51 10 	call	0x20a2	; 0x20a2 <vfprintf>
    2090:	ef 81       	ldd	r30, Y+7	; 0x07
    2092:	f8 85       	ldd	r31, Y+8	; 0x08
    2094:	e0 0f       	add	r30, r16
    2096:	f1 1f       	adc	r31, r17
    2098:	10 82       	st	Z, r1
    209a:	2e 96       	adiw	r28, 0x0e	; 14
    209c:	e4 e0       	ldi	r30, 0x04	; 4
    209e:	0c 94 0c 13 	jmp	0x2618	; 0x2618 <__epilogue_restores__+0x1c>

000020a2 <vfprintf>:
    20a2:	ab e0       	ldi	r26, 0x0B	; 11
    20a4:	b0 e0       	ldi	r27, 0x00	; 0
    20a6:	e7 e5       	ldi	r30, 0x57	; 87
    20a8:	f0 e1       	ldi	r31, 0x10	; 16
    20aa:	0c 94 e2 12 	jmp	0x25c4	; 0x25c4 <__prologue_saves__>
    20ae:	6c 01       	movw	r12, r24
    20b0:	7b 01       	movw	r14, r22
    20b2:	8a 01       	movw	r16, r20
    20b4:	fc 01       	movw	r30, r24
    20b6:	17 82       	std	Z+7, r1	; 0x07
    20b8:	16 82       	std	Z+6, r1	; 0x06
    20ba:	83 81       	ldd	r24, Z+3	; 0x03
    20bc:	81 ff       	sbrs	r24, 1
    20be:	cc c1       	rjmp	.+920    	; 0x2458 <vfprintf+0x3b6>
    20c0:	ce 01       	movw	r24, r28
    20c2:	01 96       	adiw	r24, 0x01	; 1
    20c4:	3c 01       	movw	r6, r24
    20c6:	f6 01       	movw	r30, r12
    20c8:	93 81       	ldd	r25, Z+3	; 0x03
    20ca:	f7 01       	movw	r30, r14
    20cc:	93 fd       	sbrc	r25, 3
    20ce:	85 91       	lpm	r24, Z+
    20d0:	93 ff       	sbrs	r25, 3
    20d2:	81 91       	ld	r24, Z+
    20d4:	7f 01       	movw	r14, r30
    20d6:	88 23       	and	r24, r24
    20d8:	09 f4       	brne	.+2      	; 0x20dc <vfprintf+0x3a>
    20da:	ba c1       	rjmp	.+884    	; 0x2450 <vfprintf+0x3ae>
    20dc:	85 32       	cpi	r24, 0x25	; 37
    20de:	39 f4       	brne	.+14     	; 0x20ee <vfprintf+0x4c>
    20e0:	93 fd       	sbrc	r25, 3
    20e2:	85 91       	lpm	r24, Z+
    20e4:	93 ff       	sbrs	r25, 3
    20e6:	81 91       	ld	r24, Z+
    20e8:	7f 01       	movw	r14, r30
    20ea:	85 32       	cpi	r24, 0x25	; 37
    20ec:	29 f4       	brne	.+10     	; 0x20f8 <vfprintf+0x56>
    20ee:	b6 01       	movw	r22, r12
    20f0:	90 e0       	ldi	r25, 0x00	; 0
    20f2:	0e 94 48 12 	call	0x2490	; 0x2490 <fputc>
    20f6:	e7 cf       	rjmp	.-50     	; 0x20c6 <vfprintf+0x24>
    20f8:	91 2c       	mov	r9, r1
    20fa:	21 2c       	mov	r2, r1
    20fc:	31 2c       	mov	r3, r1
    20fe:	ff e1       	ldi	r31, 0x1F	; 31
    2100:	f3 15       	cp	r31, r3
    2102:	d8 f0       	brcs	.+54     	; 0x213a <vfprintf+0x98>
    2104:	8b 32       	cpi	r24, 0x2B	; 43
    2106:	79 f0       	breq	.+30     	; 0x2126 <vfprintf+0x84>
    2108:	38 f4       	brcc	.+14     	; 0x2118 <vfprintf+0x76>
    210a:	80 32       	cpi	r24, 0x20	; 32
    210c:	79 f0       	breq	.+30     	; 0x212c <vfprintf+0x8a>
    210e:	83 32       	cpi	r24, 0x23	; 35
    2110:	a1 f4       	brne	.+40     	; 0x213a <vfprintf+0x98>
    2112:	23 2d       	mov	r18, r3
    2114:	20 61       	ori	r18, 0x10	; 16
    2116:	1d c0       	rjmp	.+58     	; 0x2152 <vfprintf+0xb0>
    2118:	8d 32       	cpi	r24, 0x2D	; 45
    211a:	61 f0       	breq	.+24     	; 0x2134 <vfprintf+0x92>
    211c:	80 33       	cpi	r24, 0x30	; 48
    211e:	69 f4       	brne	.+26     	; 0x213a <vfprintf+0x98>
    2120:	23 2d       	mov	r18, r3
    2122:	21 60       	ori	r18, 0x01	; 1
    2124:	16 c0       	rjmp	.+44     	; 0x2152 <vfprintf+0xb0>
    2126:	83 2d       	mov	r24, r3
    2128:	82 60       	ori	r24, 0x02	; 2
    212a:	38 2e       	mov	r3, r24
    212c:	e3 2d       	mov	r30, r3
    212e:	e4 60       	ori	r30, 0x04	; 4
    2130:	3e 2e       	mov	r3, r30
    2132:	2a c0       	rjmp	.+84     	; 0x2188 <vfprintf+0xe6>
    2134:	f3 2d       	mov	r31, r3
    2136:	f8 60       	ori	r31, 0x08	; 8
    2138:	1d c0       	rjmp	.+58     	; 0x2174 <vfprintf+0xd2>
    213a:	37 fc       	sbrc	r3, 7
    213c:	2d c0       	rjmp	.+90     	; 0x2198 <vfprintf+0xf6>
    213e:	20 ed       	ldi	r18, 0xD0	; 208
    2140:	28 0f       	add	r18, r24
    2142:	2a 30       	cpi	r18, 0x0A	; 10
    2144:	40 f0       	brcs	.+16     	; 0x2156 <vfprintf+0xb4>
    2146:	8e 32       	cpi	r24, 0x2E	; 46
    2148:	b9 f4       	brne	.+46     	; 0x2178 <vfprintf+0xd6>
    214a:	36 fc       	sbrc	r3, 6
    214c:	81 c1       	rjmp	.+770    	; 0x2450 <vfprintf+0x3ae>
    214e:	23 2d       	mov	r18, r3
    2150:	20 64       	ori	r18, 0x40	; 64
    2152:	32 2e       	mov	r3, r18
    2154:	19 c0       	rjmp	.+50     	; 0x2188 <vfprintf+0xe6>
    2156:	36 fe       	sbrs	r3, 6
    2158:	06 c0       	rjmp	.+12     	; 0x2166 <vfprintf+0xc4>
    215a:	8a e0       	ldi	r24, 0x0A	; 10
    215c:	98 9e       	mul	r9, r24
    215e:	20 0d       	add	r18, r0
    2160:	11 24       	eor	r1, r1
    2162:	92 2e       	mov	r9, r18
    2164:	11 c0       	rjmp	.+34     	; 0x2188 <vfprintf+0xe6>
    2166:	ea e0       	ldi	r30, 0x0A	; 10
    2168:	2e 9e       	mul	r2, r30
    216a:	20 0d       	add	r18, r0
    216c:	11 24       	eor	r1, r1
    216e:	22 2e       	mov	r2, r18
    2170:	f3 2d       	mov	r31, r3
    2172:	f0 62       	ori	r31, 0x20	; 32
    2174:	3f 2e       	mov	r3, r31
    2176:	08 c0       	rjmp	.+16     	; 0x2188 <vfprintf+0xe6>
    2178:	8c 36       	cpi	r24, 0x6C	; 108
    217a:	21 f4       	brne	.+8      	; 0x2184 <vfprintf+0xe2>
    217c:	83 2d       	mov	r24, r3
    217e:	80 68       	ori	r24, 0x80	; 128
    2180:	38 2e       	mov	r3, r24
    2182:	02 c0       	rjmp	.+4      	; 0x2188 <vfprintf+0xe6>
    2184:	88 36       	cpi	r24, 0x68	; 104
    2186:	41 f4       	brne	.+16     	; 0x2198 <vfprintf+0xf6>
    2188:	f7 01       	movw	r30, r14
    218a:	93 fd       	sbrc	r25, 3
    218c:	85 91       	lpm	r24, Z+
    218e:	93 ff       	sbrs	r25, 3
    2190:	81 91       	ld	r24, Z+
    2192:	7f 01       	movw	r14, r30
    2194:	81 11       	cpse	r24, r1
    2196:	b3 cf       	rjmp	.-154    	; 0x20fe <vfprintf+0x5c>
    2198:	98 2f       	mov	r25, r24
    219a:	9f 7d       	andi	r25, 0xDF	; 223
    219c:	95 54       	subi	r25, 0x45	; 69
    219e:	93 30       	cpi	r25, 0x03	; 3
    21a0:	28 f4       	brcc	.+10     	; 0x21ac <vfprintf+0x10a>
    21a2:	0c 5f       	subi	r16, 0xFC	; 252
    21a4:	1f 4f       	sbci	r17, 0xFF	; 255
    21a6:	9f e3       	ldi	r25, 0x3F	; 63
    21a8:	99 83       	std	Y+1, r25	; 0x01
    21aa:	0d c0       	rjmp	.+26     	; 0x21c6 <vfprintf+0x124>
    21ac:	83 36       	cpi	r24, 0x63	; 99
    21ae:	31 f0       	breq	.+12     	; 0x21bc <vfprintf+0x11a>
    21b0:	83 37       	cpi	r24, 0x73	; 115
    21b2:	71 f0       	breq	.+28     	; 0x21d0 <vfprintf+0x12e>
    21b4:	83 35       	cpi	r24, 0x53	; 83
    21b6:	09 f0       	breq	.+2      	; 0x21ba <vfprintf+0x118>
    21b8:	59 c0       	rjmp	.+178    	; 0x226c <vfprintf+0x1ca>
    21ba:	21 c0       	rjmp	.+66     	; 0x21fe <vfprintf+0x15c>
    21bc:	f8 01       	movw	r30, r16
    21be:	80 81       	ld	r24, Z
    21c0:	89 83       	std	Y+1, r24	; 0x01
    21c2:	0e 5f       	subi	r16, 0xFE	; 254
    21c4:	1f 4f       	sbci	r17, 0xFF	; 255
    21c6:	88 24       	eor	r8, r8
    21c8:	83 94       	inc	r8
    21ca:	91 2c       	mov	r9, r1
    21cc:	53 01       	movw	r10, r6
    21ce:	13 c0       	rjmp	.+38     	; 0x21f6 <vfprintf+0x154>
    21d0:	28 01       	movw	r4, r16
    21d2:	f2 e0       	ldi	r31, 0x02	; 2
    21d4:	4f 0e       	add	r4, r31
    21d6:	51 1c       	adc	r5, r1
    21d8:	f8 01       	movw	r30, r16
    21da:	a0 80       	ld	r10, Z
    21dc:	b1 80       	ldd	r11, Z+1	; 0x01
    21de:	36 fe       	sbrs	r3, 6
    21e0:	03 c0       	rjmp	.+6      	; 0x21e8 <vfprintf+0x146>
    21e2:	69 2d       	mov	r22, r9
    21e4:	70 e0       	ldi	r23, 0x00	; 0
    21e6:	02 c0       	rjmp	.+4      	; 0x21ec <vfprintf+0x14a>
    21e8:	6f ef       	ldi	r22, 0xFF	; 255
    21ea:	7f ef       	ldi	r23, 0xFF	; 255
    21ec:	c5 01       	movw	r24, r10
    21ee:	0e 94 3d 12 	call	0x247a	; 0x247a <strnlen>
    21f2:	4c 01       	movw	r8, r24
    21f4:	82 01       	movw	r16, r4
    21f6:	f3 2d       	mov	r31, r3
    21f8:	ff 77       	andi	r31, 0x7F	; 127
    21fa:	3f 2e       	mov	r3, r31
    21fc:	16 c0       	rjmp	.+44     	; 0x222a <vfprintf+0x188>
    21fe:	28 01       	movw	r4, r16
    2200:	22 e0       	ldi	r18, 0x02	; 2
    2202:	42 0e       	add	r4, r18
    2204:	51 1c       	adc	r5, r1
    2206:	f8 01       	movw	r30, r16
    2208:	a0 80       	ld	r10, Z
    220a:	b1 80       	ldd	r11, Z+1	; 0x01
    220c:	36 fe       	sbrs	r3, 6
    220e:	03 c0       	rjmp	.+6      	; 0x2216 <vfprintf+0x174>
    2210:	69 2d       	mov	r22, r9
    2212:	70 e0       	ldi	r23, 0x00	; 0
    2214:	02 c0       	rjmp	.+4      	; 0x221a <vfprintf+0x178>
    2216:	6f ef       	ldi	r22, 0xFF	; 255
    2218:	7f ef       	ldi	r23, 0xFF	; 255
    221a:	c5 01       	movw	r24, r10
    221c:	0e 94 32 12 	call	0x2464	; 0x2464 <strnlen_P>
    2220:	4c 01       	movw	r8, r24
    2222:	f3 2d       	mov	r31, r3
    2224:	f0 68       	ori	r31, 0x80	; 128
    2226:	3f 2e       	mov	r3, r31
    2228:	82 01       	movw	r16, r4
    222a:	33 fc       	sbrc	r3, 3
    222c:	1b c0       	rjmp	.+54     	; 0x2264 <vfprintf+0x1c2>
    222e:	82 2d       	mov	r24, r2
    2230:	90 e0       	ldi	r25, 0x00	; 0
    2232:	88 16       	cp	r8, r24
    2234:	99 06       	cpc	r9, r25
    2236:	b0 f4       	brcc	.+44     	; 0x2264 <vfprintf+0x1c2>
    2238:	b6 01       	movw	r22, r12
    223a:	80 e2       	ldi	r24, 0x20	; 32
    223c:	90 e0       	ldi	r25, 0x00	; 0
    223e:	0e 94 48 12 	call	0x2490	; 0x2490 <fputc>
    2242:	2a 94       	dec	r2
    2244:	f4 cf       	rjmp	.-24     	; 0x222e <vfprintf+0x18c>
    2246:	f5 01       	movw	r30, r10
    2248:	37 fc       	sbrc	r3, 7
    224a:	85 91       	lpm	r24, Z+
    224c:	37 fe       	sbrs	r3, 7
    224e:	81 91       	ld	r24, Z+
    2250:	5f 01       	movw	r10, r30
    2252:	b6 01       	movw	r22, r12
    2254:	90 e0       	ldi	r25, 0x00	; 0
    2256:	0e 94 48 12 	call	0x2490	; 0x2490 <fputc>
    225a:	21 10       	cpse	r2, r1
    225c:	2a 94       	dec	r2
    225e:	21 e0       	ldi	r18, 0x01	; 1
    2260:	82 1a       	sub	r8, r18
    2262:	91 08       	sbc	r9, r1
    2264:	81 14       	cp	r8, r1
    2266:	91 04       	cpc	r9, r1
    2268:	71 f7       	brne	.-36     	; 0x2246 <vfprintf+0x1a4>
    226a:	e8 c0       	rjmp	.+464    	; 0x243c <vfprintf+0x39a>
    226c:	84 36       	cpi	r24, 0x64	; 100
    226e:	11 f0       	breq	.+4      	; 0x2274 <vfprintf+0x1d2>
    2270:	89 36       	cpi	r24, 0x69	; 105
    2272:	41 f5       	brne	.+80     	; 0x22c4 <vfprintf+0x222>
    2274:	f8 01       	movw	r30, r16
    2276:	37 fe       	sbrs	r3, 7
    2278:	07 c0       	rjmp	.+14     	; 0x2288 <vfprintf+0x1e6>
    227a:	60 81       	ld	r22, Z
    227c:	71 81       	ldd	r23, Z+1	; 0x01
    227e:	82 81       	ldd	r24, Z+2	; 0x02
    2280:	93 81       	ldd	r25, Z+3	; 0x03
    2282:	0c 5f       	subi	r16, 0xFC	; 252
    2284:	1f 4f       	sbci	r17, 0xFF	; 255
    2286:	08 c0       	rjmp	.+16     	; 0x2298 <vfprintf+0x1f6>
    2288:	60 81       	ld	r22, Z
    228a:	71 81       	ldd	r23, Z+1	; 0x01
    228c:	07 2e       	mov	r0, r23
    228e:	00 0c       	add	r0, r0
    2290:	88 0b       	sbc	r24, r24
    2292:	99 0b       	sbc	r25, r25
    2294:	0e 5f       	subi	r16, 0xFE	; 254
    2296:	1f 4f       	sbci	r17, 0xFF	; 255
    2298:	f3 2d       	mov	r31, r3
    229a:	ff 76       	andi	r31, 0x6F	; 111
    229c:	3f 2e       	mov	r3, r31
    229e:	97 ff       	sbrs	r25, 7
    22a0:	09 c0       	rjmp	.+18     	; 0x22b4 <vfprintf+0x212>
    22a2:	90 95       	com	r25
    22a4:	80 95       	com	r24
    22a6:	70 95       	com	r23
    22a8:	61 95       	neg	r22
    22aa:	7f 4f       	sbci	r23, 0xFF	; 255
    22ac:	8f 4f       	sbci	r24, 0xFF	; 255
    22ae:	9f 4f       	sbci	r25, 0xFF	; 255
    22b0:	f0 68       	ori	r31, 0x80	; 128
    22b2:	3f 2e       	mov	r3, r31
    22b4:	2a e0       	ldi	r18, 0x0A	; 10
    22b6:	30 e0       	ldi	r19, 0x00	; 0
    22b8:	a3 01       	movw	r20, r6
    22ba:	0e 94 84 12 	call	0x2508	; 0x2508 <__ultoa_invert>
    22be:	88 2e       	mov	r8, r24
    22c0:	86 18       	sub	r8, r6
    22c2:	45 c0       	rjmp	.+138    	; 0x234e <vfprintf+0x2ac>
    22c4:	85 37       	cpi	r24, 0x75	; 117
    22c6:	31 f4       	brne	.+12     	; 0x22d4 <vfprintf+0x232>
    22c8:	23 2d       	mov	r18, r3
    22ca:	2f 7e       	andi	r18, 0xEF	; 239
    22cc:	b2 2e       	mov	r11, r18
    22ce:	2a e0       	ldi	r18, 0x0A	; 10
    22d0:	30 e0       	ldi	r19, 0x00	; 0
    22d2:	25 c0       	rjmp	.+74     	; 0x231e <vfprintf+0x27c>
    22d4:	93 2d       	mov	r25, r3
    22d6:	99 7f       	andi	r25, 0xF9	; 249
    22d8:	b9 2e       	mov	r11, r25
    22da:	8f 36       	cpi	r24, 0x6F	; 111
    22dc:	c1 f0       	breq	.+48     	; 0x230e <vfprintf+0x26c>
    22de:	18 f4       	brcc	.+6      	; 0x22e6 <vfprintf+0x244>
    22e0:	88 35       	cpi	r24, 0x58	; 88
    22e2:	79 f0       	breq	.+30     	; 0x2302 <vfprintf+0x260>
    22e4:	b5 c0       	rjmp	.+362    	; 0x2450 <vfprintf+0x3ae>
    22e6:	80 37       	cpi	r24, 0x70	; 112
    22e8:	19 f0       	breq	.+6      	; 0x22f0 <vfprintf+0x24e>
    22ea:	88 37       	cpi	r24, 0x78	; 120
    22ec:	21 f0       	breq	.+8      	; 0x22f6 <vfprintf+0x254>
    22ee:	b0 c0       	rjmp	.+352    	; 0x2450 <vfprintf+0x3ae>
    22f0:	e9 2f       	mov	r30, r25
    22f2:	e0 61       	ori	r30, 0x10	; 16
    22f4:	be 2e       	mov	r11, r30
    22f6:	b4 fe       	sbrs	r11, 4
    22f8:	0d c0       	rjmp	.+26     	; 0x2314 <vfprintf+0x272>
    22fa:	fb 2d       	mov	r31, r11
    22fc:	f4 60       	ori	r31, 0x04	; 4
    22fe:	bf 2e       	mov	r11, r31
    2300:	09 c0       	rjmp	.+18     	; 0x2314 <vfprintf+0x272>
    2302:	34 fe       	sbrs	r3, 4
    2304:	0a c0       	rjmp	.+20     	; 0x231a <vfprintf+0x278>
    2306:	29 2f       	mov	r18, r25
    2308:	26 60       	ori	r18, 0x06	; 6
    230a:	b2 2e       	mov	r11, r18
    230c:	06 c0       	rjmp	.+12     	; 0x231a <vfprintf+0x278>
    230e:	28 e0       	ldi	r18, 0x08	; 8
    2310:	30 e0       	ldi	r19, 0x00	; 0
    2312:	05 c0       	rjmp	.+10     	; 0x231e <vfprintf+0x27c>
    2314:	20 e1       	ldi	r18, 0x10	; 16
    2316:	30 e0       	ldi	r19, 0x00	; 0
    2318:	02 c0       	rjmp	.+4      	; 0x231e <vfprintf+0x27c>
    231a:	20 e1       	ldi	r18, 0x10	; 16
    231c:	32 e0       	ldi	r19, 0x02	; 2
    231e:	f8 01       	movw	r30, r16
    2320:	b7 fe       	sbrs	r11, 7
    2322:	07 c0       	rjmp	.+14     	; 0x2332 <vfprintf+0x290>
    2324:	60 81       	ld	r22, Z
    2326:	71 81       	ldd	r23, Z+1	; 0x01
    2328:	82 81       	ldd	r24, Z+2	; 0x02
    232a:	93 81       	ldd	r25, Z+3	; 0x03
    232c:	0c 5f       	subi	r16, 0xFC	; 252
    232e:	1f 4f       	sbci	r17, 0xFF	; 255
    2330:	06 c0       	rjmp	.+12     	; 0x233e <vfprintf+0x29c>
    2332:	60 81       	ld	r22, Z
    2334:	71 81       	ldd	r23, Z+1	; 0x01
    2336:	80 e0       	ldi	r24, 0x00	; 0
    2338:	90 e0       	ldi	r25, 0x00	; 0
    233a:	0e 5f       	subi	r16, 0xFE	; 254
    233c:	1f 4f       	sbci	r17, 0xFF	; 255
    233e:	a3 01       	movw	r20, r6
    2340:	0e 94 84 12 	call	0x2508	; 0x2508 <__ultoa_invert>
    2344:	88 2e       	mov	r8, r24
    2346:	86 18       	sub	r8, r6
    2348:	fb 2d       	mov	r31, r11
    234a:	ff 77       	andi	r31, 0x7F	; 127
    234c:	3f 2e       	mov	r3, r31
    234e:	36 fe       	sbrs	r3, 6
    2350:	0d c0       	rjmp	.+26     	; 0x236c <vfprintf+0x2ca>
    2352:	23 2d       	mov	r18, r3
    2354:	2e 7f       	andi	r18, 0xFE	; 254
    2356:	a2 2e       	mov	r10, r18
    2358:	89 14       	cp	r8, r9
    235a:	58 f4       	brcc	.+22     	; 0x2372 <vfprintf+0x2d0>
    235c:	34 fe       	sbrs	r3, 4
    235e:	0b c0       	rjmp	.+22     	; 0x2376 <vfprintf+0x2d4>
    2360:	32 fc       	sbrc	r3, 2
    2362:	09 c0       	rjmp	.+18     	; 0x2376 <vfprintf+0x2d4>
    2364:	83 2d       	mov	r24, r3
    2366:	8e 7e       	andi	r24, 0xEE	; 238
    2368:	a8 2e       	mov	r10, r24
    236a:	05 c0       	rjmp	.+10     	; 0x2376 <vfprintf+0x2d4>
    236c:	b8 2c       	mov	r11, r8
    236e:	a3 2c       	mov	r10, r3
    2370:	03 c0       	rjmp	.+6      	; 0x2378 <vfprintf+0x2d6>
    2372:	b8 2c       	mov	r11, r8
    2374:	01 c0       	rjmp	.+2      	; 0x2378 <vfprintf+0x2d6>
    2376:	b9 2c       	mov	r11, r9
    2378:	a4 fe       	sbrs	r10, 4
    237a:	0f c0       	rjmp	.+30     	; 0x239a <vfprintf+0x2f8>
    237c:	fe 01       	movw	r30, r28
    237e:	e8 0d       	add	r30, r8
    2380:	f1 1d       	adc	r31, r1
    2382:	80 81       	ld	r24, Z
    2384:	80 33       	cpi	r24, 0x30	; 48
    2386:	21 f4       	brne	.+8      	; 0x2390 <vfprintf+0x2ee>
    2388:	9a 2d       	mov	r25, r10
    238a:	99 7e       	andi	r25, 0xE9	; 233
    238c:	a9 2e       	mov	r10, r25
    238e:	09 c0       	rjmp	.+18     	; 0x23a2 <vfprintf+0x300>
    2390:	a2 fe       	sbrs	r10, 2
    2392:	06 c0       	rjmp	.+12     	; 0x23a0 <vfprintf+0x2fe>
    2394:	b3 94       	inc	r11
    2396:	b3 94       	inc	r11
    2398:	04 c0       	rjmp	.+8      	; 0x23a2 <vfprintf+0x300>
    239a:	8a 2d       	mov	r24, r10
    239c:	86 78       	andi	r24, 0x86	; 134
    239e:	09 f0       	breq	.+2      	; 0x23a2 <vfprintf+0x300>
    23a0:	b3 94       	inc	r11
    23a2:	a3 fc       	sbrc	r10, 3
    23a4:	11 c0       	rjmp	.+34     	; 0x23c8 <vfprintf+0x326>
    23a6:	a0 fe       	sbrs	r10, 0
    23a8:	06 c0       	rjmp	.+12     	; 0x23b6 <vfprintf+0x314>
    23aa:	b2 14       	cp	r11, r2
    23ac:	88 f4       	brcc	.+34     	; 0x23d0 <vfprintf+0x32e>
    23ae:	28 0c       	add	r2, r8
    23b0:	92 2c       	mov	r9, r2
    23b2:	9b 18       	sub	r9, r11
    23b4:	0e c0       	rjmp	.+28     	; 0x23d2 <vfprintf+0x330>
    23b6:	b2 14       	cp	r11, r2
    23b8:	60 f4       	brcc	.+24     	; 0x23d2 <vfprintf+0x330>
    23ba:	b6 01       	movw	r22, r12
    23bc:	80 e2       	ldi	r24, 0x20	; 32
    23be:	90 e0       	ldi	r25, 0x00	; 0
    23c0:	0e 94 48 12 	call	0x2490	; 0x2490 <fputc>
    23c4:	b3 94       	inc	r11
    23c6:	f7 cf       	rjmp	.-18     	; 0x23b6 <vfprintf+0x314>
    23c8:	b2 14       	cp	r11, r2
    23ca:	18 f4       	brcc	.+6      	; 0x23d2 <vfprintf+0x330>
    23cc:	2b 18       	sub	r2, r11
    23ce:	02 c0       	rjmp	.+4      	; 0x23d4 <vfprintf+0x332>
    23d0:	98 2c       	mov	r9, r8
    23d2:	21 2c       	mov	r2, r1
    23d4:	a4 fe       	sbrs	r10, 4
    23d6:	10 c0       	rjmp	.+32     	; 0x23f8 <vfprintf+0x356>
    23d8:	b6 01       	movw	r22, r12
    23da:	80 e3       	ldi	r24, 0x30	; 48
    23dc:	90 e0       	ldi	r25, 0x00	; 0
    23de:	0e 94 48 12 	call	0x2490	; 0x2490 <fputc>
    23e2:	a2 fe       	sbrs	r10, 2
    23e4:	17 c0       	rjmp	.+46     	; 0x2414 <vfprintf+0x372>
    23e6:	a1 fc       	sbrc	r10, 1
    23e8:	03 c0       	rjmp	.+6      	; 0x23f0 <vfprintf+0x34e>
    23ea:	88 e7       	ldi	r24, 0x78	; 120
    23ec:	90 e0       	ldi	r25, 0x00	; 0
    23ee:	02 c0       	rjmp	.+4      	; 0x23f4 <vfprintf+0x352>
    23f0:	88 e5       	ldi	r24, 0x58	; 88
    23f2:	90 e0       	ldi	r25, 0x00	; 0
    23f4:	b6 01       	movw	r22, r12
    23f6:	0c c0       	rjmp	.+24     	; 0x2410 <vfprintf+0x36e>
    23f8:	8a 2d       	mov	r24, r10
    23fa:	86 78       	andi	r24, 0x86	; 134
    23fc:	59 f0       	breq	.+22     	; 0x2414 <vfprintf+0x372>
    23fe:	a1 fe       	sbrs	r10, 1
    2400:	02 c0       	rjmp	.+4      	; 0x2406 <vfprintf+0x364>
    2402:	8b e2       	ldi	r24, 0x2B	; 43
    2404:	01 c0       	rjmp	.+2      	; 0x2408 <vfprintf+0x366>
    2406:	80 e2       	ldi	r24, 0x20	; 32
    2408:	a7 fc       	sbrc	r10, 7
    240a:	8d e2       	ldi	r24, 0x2D	; 45
    240c:	b6 01       	movw	r22, r12
    240e:	90 e0       	ldi	r25, 0x00	; 0
    2410:	0e 94 48 12 	call	0x2490	; 0x2490 <fputc>
    2414:	89 14       	cp	r8, r9
    2416:	38 f4       	brcc	.+14     	; 0x2426 <vfprintf+0x384>
    2418:	b6 01       	movw	r22, r12
    241a:	80 e3       	ldi	r24, 0x30	; 48
    241c:	90 e0       	ldi	r25, 0x00	; 0
    241e:	0e 94 48 12 	call	0x2490	; 0x2490 <fputc>
    2422:	9a 94       	dec	r9
    2424:	f7 cf       	rjmp	.-18     	; 0x2414 <vfprintf+0x372>
    2426:	8a 94       	dec	r8
    2428:	f3 01       	movw	r30, r6
    242a:	e8 0d       	add	r30, r8
    242c:	f1 1d       	adc	r31, r1
    242e:	80 81       	ld	r24, Z
    2430:	b6 01       	movw	r22, r12
    2432:	90 e0       	ldi	r25, 0x00	; 0
    2434:	0e 94 48 12 	call	0x2490	; 0x2490 <fputc>
    2438:	81 10       	cpse	r8, r1
    243a:	f5 cf       	rjmp	.-22     	; 0x2426 <vfprintf+0x384>
    243c:	22 20       	and	r2, r2
    243e:	09 f4       	brne	.+2      	; 0x2442 <vfprintf+0x3a0>
    2440:	42 ce       	rjmp	.-892    	; 0x20c6 <vfprintf+0x24>
    2442:	b6 01       	movw	r22, r12
    2444:	80 e2       	ldi	r24, 0x20	; 32
    2446:	90 e0       	ldi	r25, 0x00	; 0
    2448:	0e 94 48 12 	call	0x2490	; 0x2490 <fputc>
    244c:	2a 94       	dec	r2
    244e:	f6 cf       	rjmp	.-20     	; 0x243c <vfprintf+0x39a>
    2450:	f6 01       	movw	r30, r12
    2452:	86 81       	ldd	r24, Z+6	; 0x06
    2454:	97 81       	ldd	r25, Z+7	; 0x07
    2456:	02 c0       	rjmp	.+4      	; 0x245c <vfprintf+0x3ba>
    2458:	8f ef       	ldi	r24, 0xFF	; 255
    245a:	9f ef       	ldi	r25, 0xFF	; 255
    245c:	2b 96       	adiw	r28, 0x0b	; 11
    245e:	e2 e1       	ldi	r30, 0x12	; 18
    2460:	0c 94 fe 12 	jmp	0x25fc	; 0x25fc <__epilogue_restores__>

00002464 <strnlen_P>:
    2464:	fc 01       	movw	r30, r24
    2466:	05 90       	lpm	r0, Z+
    2468:	61 50       	subi	r22, 0x01	; 1
    246a:	70 40       	sbci	r23, 0x00	; 0
    246c:	01 10       	cpse	r0, r1
    246e:	d8 f7       	brcc	.-10     	; 0x2466 <strnlen_P+0x2>
    2470:	80 95       	com	r24
    2472:	90 95       	com	r25
    2474:	8e 0f       	add	r24, r30
    2476:	9f 1f       	adc	r25, r31
    2478:	08 95       	ret

0000247a <strnlen>:
    247a:	fc 01       	movw	r30, r24
    247c:	61 50       	subi	r22, 0x01	; 1
    247e:	70 40       	sbci	r23, 0x00	; 0
    2480:	01 90       	ld	r0, Z+
    2482:	01 10       	cpse	r0, r1
    2484:	d8 f7       	brcc	.-10     	; 0x247c <strnlen+0x2>
    2486:	80 95       	com	r24
    2488:	90 95       	com	r25
    248a:	8e 0f       	add	r24, r30
    248c:	9f 1f       	adc	r25, r31
    248e:	08 95       	ret

00002490 <fputc>:
    2490:	0f 93       	push	r16
    2492:	1f 93       	push	r17
    2494:	cf 93       	push	r28
    2496:	df 93       	push	r29
    2498:	fb 01       	movw	r30, r22
    249a:	23 81       	ldd	r18, Z+3	; 0x03
    249c:	21 fd       	sbrc	r18, 1
    249e:	03 c0       	rjmp	.+6      	; 0x24a6 <fputc+0x16>
    24a0:	8f ef       	ldi	r24, 0xFF	; 255
    24a2:	9f ef       	ldi	r25, 0xFF	; 255
    24a4:	2c c0       	rjmp	.+88     	; 0x24fe <fputc+0x6e>
    24a6:	22 ff       	sbrs	r18, 2
    24a8:	16 c0       	rjmp	.+44     	; 0x24d6 <fputc+0x46>
    24aa:	46 81       	ldd	r20, Z+6	; 0x06
    24ac:	57 81       	ldd	r21, Z+7	; 0x07
    24ae:	24 81       	ldd	r18, Z+4	; 0x04
    24b0:	35 81       	ldd	r19, Z+5	; 0x05
    24b2:	42 17       	cp	r20, r18
    24b4:	53 07       	cpc	r21, r19
    24b6:	44 f4       	brge	.+16     	; 0x24c8 <fputc+0x38>
    24b8:	a0 81       	ld	r26, Z
    24ba:	b1 81       	ldd	r27, Z+1	; 0x01
    24bc:	9d 01       	movw	r18, r26
    24be:	2f 5f       	subi	r18, 0xFF	; 255
    24c0:	3f 4f       	sbci	r19, 0xFF	; 255
    24c2:	31 83       	std	Z+1, r19	; 0x01
    24c4:	20 83       	st	Z, r18
    24c6:	8c 93       	st	X, r24
    24c8:	26 81       	ldd	r18, Z+6	; 0x06
    24ca:	37 81       	ldd	r19, Z+7	; 0x07
    24cc:	2f 5f       	subi	r18, 0xFF	; 255
    24ce:	3f 4f       	sbci	r19, 0xFF	; 255
    24d0:	37 83       	std	Z+7, r19	; 0x07
    24d2:	26 83       	std	Z+6, r18	; 0x06
    24d4:	14 c0       	rjmp	.+40     	; 0x24fe <fputc+0x6e>
    24d6:	8b 01       	movw	r16, r22
    24d8:	ec 01       	movw	r28, r24
    24da:	fb 01       	movw	r30, r22
    24dc:	00 84       	ldd	r0, Z+8	; 0x08
    24de:	f1 85       	ldd	r31, Z+9	; 0x09
    24e0:	e0 2d       	mov	r30, r0
    24e2:	09 95       	icall
    24e4:	89 2b       	or	r24, r25
    24e6:	e1 f6       	brne	.-72     	; 0x24a0 <fputc+0x10>
    24e8:	d8 01       	movw	r26, r16
    24ea:	16 96       	adiw	r26, 0x06	; 6
    24ec:	8d 91       	ld	r24, X+
    24ee:	9c 91       	ld	r25, X
    24f0:	17 97       	sbiw	r26, 0x07	; 7
    24f2:	01 96       	adiw	r24, 0x01	; 1
    24f4:	17 96       	adiw	r26, 0x07	; 7
    24f6:	9c 93       	st	X, r25
    24f8:	8e 93       	st	-X, r24
    24fa:	16 97       	sbiw	r26, 0x06	; 6
    24fc:	ce 01       	movw	r24, r28
    24fe:	df 91       	pop	r29
    2500:	cf 91       	pop	r28
    2502:	1f 91       	pop	r17
    2504:	0f 91       	pop	r16
    2506:	08 95       	ret

00002508 <__ultoa_invert>:
    2508:	fa 01       	movw	r30, r20
    250a:	aa 27       	eor	r26, r26
    250c:	28 30       	cpi	r18, 0x08	; 8
    250e:	51 f1       	breq	.+84     	; 0x2564 <__ultoa_invert+0x5c>
    2510:	20 31       	cpi	r18, 0x10	; 16
    2512:	81 f1       	breq	.+96     	; 0x2574 <__ultoa_invert+0x6c>
    2514:	e8 94       	clt
    2516:	6f 93       	push	r22
    2518:	6e 7f       	andi	r22, 0xFE	; 254
    251a:	6e 5f       	subi	r22, 0xFE	; 254
    251c:	7f 4f       	sbci	r23, 0xFF	; 255
    251e:	8f 4f       	sbci	r24, 0xFF	; 255
    2520:	9f 4f       	sbci	r25, 0xFF	; 255
    2522:	af 4f       	sbci	r26, 0xFF	; 255
    2524:	b1 e0       	ldi	r27, 0x01	; 1
    2526:	3e d0       	rcall	.+124    	; 0x25a4 <__ultoa_invert+0x9c>
    2528:	b4 e0       	ldi	r27, 0x04	; 4
    252a:	3c d0       	rcall	.+120    	; 0x25a4 <__ultoa_invert+0x9c>
    252c:	67 0f       	add	r22, r23
    252e:	78 1f       	adc	r23, r24
    2530:	89 1f       	adc	r24, r25
    2532:	9a 1f       	adc	r25, r26
    2534:	a1 1d       	adc	r26, r1
    2536:	68 0f       	add	r22, r24
    2538:	79 1f       	adc	r23, r25
    253a:	8a 1f       	adc	r24, r26
    253c:	91 1d       	adc	r25, r1
    253e:	a1 1d       	adc	r26, r1
    2540:	6a 0f       	add	r22, r26
    2542:	71 1d       	adc	r23, r1
    2544:	81 1d       	adc	r24, r1
    2546:	91 1d       	adc	r25, r1
    2548:	a1 1d       	adc	r26, r1
    254a:	20 d0       	rcall	.+64     	; 0x258c <__ultoa_invert+0x84>
    254c:	09 f4       	brne	.+2      	; 0x2550 <__ultoa_invert+0x48>
    254e:	68 94       	set
    2550:	3f 91       	pop	r19
    2552:	2a e0       	ldi	r18, 0x0A	; 10
    2554:	26 9f       	mul	r18, r22
    2556:	11 24       	eor	r1, r1
    2558:	30 19       	sub	r19, r0
    255a:	30 5d       	subi	r19, 0xD0	; 208
    255c:	31 93       	st	Z+, r19
    255e:	de f6       	brtc	.-74     	; 0x2516 <__ultoa_invert+0xe>
    2560:	cf 01       	movw	r24, r30
    2562:	08 95       	ret
    2564:	46 2f       	mov	r20, r22
    2566:	47 70       	andi	r20, 0x07	; 7
    2568:	40 5d       	subi	r20, 0xD0	; 208
    256a:	41 93       	st	Z+, r20
    256c:	b3 e0       	ldi	r27, 0x03	; 3
    256e:	0f d0       	rcall	.+30     	; 0x258e <__ultoa_invert+0x86>
    2570:	c9 f7       	brne	.-14     	; 0x2564 <__ultoa_invert+0x5c>
    2572:	f6 cf       	rjmp	.-20     	; 0x2560 <__ultoa_invert+0x58>
    2574:	46 2f       	mov	r20, r22
    2576:	4f 70       	andi	r20, 0x0F	; 15
    2578:	40 5d       	subi	r20, 0xD0	; 208
    257a:	4a 33       	cpi	r20, 0x3A	; 58
    257c:	18 f0       	brcs	.+6      	; 0x2584 <__ultoa_invert+0x7c>
    257e:	49 5d       	subi	r20, 0xD9	; 217
    2580:	31 fd       	sbrc	r19, 1
    2582:	40 52       	subi	r20, 0x20	; 32
    2584:	41 93       	st	Z+, r20
    2586:	02 d0       	rcall	.+4      	; 0x258c <__ultoa_invert+0x84>
    2588:	a9 f7       	brne	.-22     	; 0x2574 <__ultoa_invert+0x6c>
    258a:	ea cf       	rjmp	.-44     	; 0x2560 <__ultoa_invert+0x58>
    258c:	b4 e0       	ldi	r27, 0x04	; 4
    258e:	a6 95       	lsr	r26
    2590:	97 95       	ror	r25
    2592:	87 95       	ror	r24
    2594:	77 95       	ror	r23
    2596:	67 95       	ror	r22
    2598:	ba 95       	dec	r27
    259a:	c9 f7       	brne	.-14     	; 0x258e <__ultoa_invert+0x86>
    259c:	00 97       	sbiw	r24, 0x00	; 0
    259e:	61 05       	cpc	r22, r1
    25a0:	71 05       	cpc	r23, r1
    25a2:	08 95       	ret
    25a4:	9b 01       	movw	r18, r22
    25a6:	ac 01       	movw	r20, r24
    25a8:	0a 2e       	mov	r0, r26
    25aa:	06 94       	lsr	r0
    25ac:	57 95       	ror	r21
    25ae:	47 95       	ror	r20
    25b0:	37 95       	ror	r19
    25b2:	27 95       	ror	r18
    25b4:	ba 95       	dec	r27
    25b6:	c9 f7       	brne	.-14     	; 0x25aa <__ultoa_invert+0xa2>
    25b8:	62 0f       	add	r22, r18
    25ba:	73 1f       	adc	r23, r19
    25bc:	84 1f       	adc	r24, r20
    25be:	95 1f       	adc	r25, r21
    25c0:	a0 1d       	adc	r26, r0
    25c2:	08 95       	ret

000025c4 <__prologue_saves__>:
    25c4:	2f 92       	push	r2
    25c6:	3f 92       	push	r3
    25c8:	4f 92       	push	r4
    25ca:	5f 92       	push	r5
    25cc:	6f 92       	push	r6
    25ce:	7f 92       	push	r7
    25d0:	8f 92       	push	r8
    25d2:	9f 92       	push	r9
    25d4:	af 92       	push	r10
    25d6:	bf 92       	push	r11
    25d8:	cf 92       	push	r12
    25da:	df 92       	push	r13
    25dc:	ef 92       	push	r14
    25de:	ff 92       	push	r15
    25e0:	0f 93       	push	r16
    25e2:	1f 93       	push	r17
    25e4:	cf 93       	push	r28
    25e6:	df 93       	push	r29
    25e8:	cd b7       	in	r28, 0x3d	; 61
    25ea:	de b7       	in	r29, 0x3e	; 62
    25ec:	ca 1b       	sub	r28, r26
    25ee:	db 0b       	sbc	r29, r27
    25f0:	0f b6       	in	r0, 0x3f	; 63
    25f2:	f8 94       	cli
    25f4:	de bf       	out	0x3e, r29	; 62
    25f6:	0f be       	out	0x3f, r0	; 63
    25f8:	cd bf       	out	0x3d, r28	; 61
    25fa:	09 94       	ijmp

000025fc <__epilogue_restores__>:
    25fc:	2a 88       	ldd	r2, Y+18	; 0x12
    25fe:	39 88       	ldd	r3, Y+17	; 0x11
    2600:	48 88       	ldd	r4, Y+16	; 0x10
    2602:	5f 84       	ldd	r5, Y+15	; 0x0f
    2604:	6e 84       	ldd	r6, Y+14	; 0x0e
    2606:	7d 84       	ldd	r7, Y+13	; 0x0d
    2608:	8c 84       	ldd	r8, Y+12	; 0x0c
    260a:	9b 84       	ldd	r9, Y+11	; 0x0b
    260c:	aa 84       	ldd	r10, Y+10	; 0x0a
    260e:	b9 84       	ldd	r11, Y+9	; 0x09
    2610:	c8 84       	ldd	r12, Y+8	; 0x08
    2612:	df 80       	ldd	r13, Y+7	; 0x07
    2614:	ee 80       	ldd	r14, Y+6	; 0x06
    2616:	fd 80       	ldd	r15, Y+5	; 0x05
    2618:	0c 81       	ldd	r16, Y+4	; 0x04
    261a:	1b 81       	ldd	r17, Y+3	; 0x03
    261c:	aa 81       	ldd	r26, Y+2	; 0x02
    261e:	b9 81       	ldd	r27, Y+1	; 0x01
    2620:	ce 0f       	add	r28, r30
    2622:	d1 1d       	adc	r29, r1
    2624:	0f b6       	in	r0, 0x3f	; 63
    2626:	f8 94       	cli
    2628:	de bf       	out	0x3e, r29	; 62
    262a:	0f be       	out	0x3f, r0	; 63
    262c:	cd bf       	out	0x3d, r28	; 61
    262e:	ed 01       	movw	r28, r26
    2630:	08 95       	ret

00002632 <_exit>:
    2632:	f8 94       	cli

00002634 <__stop_program>:
    2634:	ff cf       	rjmp	.-2      	; 0x2634 <__stop_program>
